(dp1
S'exc:angina pectoris'
p2
c__builtin__
set
p3
((lp4
S'NCT03684980'
p5
aS'NCT04366089'
p6
aS'NCT04369274'
p7
aS'NCT04346147'
p8
aS'NCT03323463'
p9
aS'NCT04341116'
p10
aS'NCT04402944'
p11
aS'NCT04361643'
p12
aS'NCT04362332'
p13
aS'NCT04386447'
p14
aS'NCT04329923'
p15
aS'NCT04374084'
p16
aS'NCT04392323'
p17
aS'NCT04381884'
p18
aS'NCT04341727'
p19
aS'NCT04368988'
p20
aS'NCT04346979'
p21
aS'NCT04375735'
p22
aS'NCT04359329'
p23
aS'NCT04333472'
p24
aS'NCT04380961'
p25
aS'NCT04375657'
p26
aS'NCT04365257'
p27
aS'NCT04389450'
p28
aS'NCT04308317'
p29
aS'NCT02875301'
p30
aS'NCT04390594'
p31
aS'NCT04346940'
p32
aS'NCT04353037'
p33
aS'NCT04405102'
p34
aS'NCT03823469'
p35
aS'NCT04304313'
p36
aS'NCT04312100'
p37
aS'NCT04386980'
p38
atRp39
sS'exc:chest ct'
p40
g3
((lp41
S'NCT04361474'
p42
aS'NCT04367805'
p43
aS'NCT04363593'
p44
aS'NCT04323644'
p45
aS'NCT04338568'
p46
aS'NCT04286503'
p47
aS'NCT04355247'
p48
aS'NCT04381988'
p49
aS'NCT04335786'
p50
atRp51
sS'exc:anticoagulants'
p52
g3
((lp53
S'NCT04363528'
p54
aS'NCT04380870'
p55
aS'NCT04400890'
p56
aS'NCT04400838'
p57
aS'NCT04356144'
p58
aS'NCT04260594'
p59
aS'NCT04251767'
p60
aS'NCT04400799'
p61
aS'NCT04377997'
p62
aS'NCT04371952'
p63
aS'NCT04343976'
p64
aS'NCT04344756'
p65
aS'NCT04389840'
p66
aS'NCT04408235'
p67
aS'NCT04366960'
p68
aS'NCT04359277'
p69
aS'NCT04356950'
p70
aS'NCT04357457'
p71
aS'NCT04283461'
p72
aS'NCT04367831'
p73
aS'NCT04348383'
p74
aS'NCT04335201'
p75
aS'NCT04391179'
p76
aS'NCT04342897'
p77
atRp78
sS'exc:substance abuse problem'
p79
g3
((lp80
S'NCT04380701'
p81
aS'NCT04397718'
p82
aS'NCT04334265'
p83
aS'NCT04321096'
p84
aS'NCT04363177'
p85
aS'NCT04350281'
p86
aS'NCT04332913'
p87
aS'NCT04386291'
p88
aS'NCT04336410'
p89
aS'NCT04370015'
p90
ag64
aS'NCT04333589'
p91
aS'NCT04383574'
p92
ag20
aS'NCT04333225'
p93
aS'NCT04346628'
p94
aS'NCT04276688'
p95
aS'NCT04365517'
p96
ag30
aS'NCT04392219'
p97
aS'NCT04352608'
p98
aS'NCT04158648'
p99
ag38
atRp100
sS'inc:cough with fever'
p101
g3
((lp102
S'NCT04379479'
p103
aS'NCT04362176'
p104
aS'NCT04408170'
p105
aS'NCT04370782'
p106
ag54
ag55
aS'NCT04345614'
p107
aS'NCT04319172'
p108
aS'NCT04347239'
p109
aS'NCT04393558'
p110
aS'NCT04372628'
p111
aS'NCT04324047'
p112
aS'NCT04313946'
p113
aS'NCT04320277'
p114
aS'NCT04358614'
p115
aS'NCT04355611'
p116
aS'NCT04406532'
p117
aS'NCT04334005'
p118
aS'NCT04355676'
p119
aS'NCT04377308'
p120
aS'NCT04348474'
p121
aS'NCT04349098'
p122
aS'NCT04379271'
p123
atRp124
sS'exc:liver dysfunction'
p125
g3
((lp126
S'NCT04355793'
p127
aS'NCT04345289'
p128
aS'NCT04393311'
p129
aS'NCT04360356'
p130
ag73
aS'NCT04304053'
p131
aS'NCT04402866'
p132
aS'NCT04380727'
p133
aS'NCT04386850'
p134
aS'NCT04387760'
p135
aS'NCT04371601'
p136
aS'NCT04355897'
p137
aS'NCT04330586'
p138
aS'NCT04361318'
p139
aS'NCT04351724'
p140
ag50
ag59
aS'NCT04395508'
p141
atRp142
sS'inc:lung'
p143
g3
((lp144
S'NCT04366063'
p145
aS'NCT04345523'
p146
aS'NCT04358627'
p147
aS'NCT04341103'
p148
aS'NCT04358926'
p149
ag83
aS'NCT04402840'
p150
aS'NCT04407182'
p151
aS'NCT04338958'
p152
aS'NCT04343261'
p153
aS'NCT04353206'
p154
aS'NCT04334460'
p155
aS'NCT04354428'
p156
aS'NCT04335552'
p157
aS'NCT04263402'
p158
aS'NCT04322188'
p159
ag87
ag62
aS'NCT04272710'
p160
aS'NCT04275414'
p161
aS'NCT04400877'
p162
aS'NCT04351880'
p163
aS'NCT04370236'
p164
aS'NCT04326036'
p165
aS'NCT04315480'
p166
aS'NCT04313127'
p167
aS'NCT04360486'
p168
aS'NCT04382768'
p169
ag10
aS'NCT04364763'
p170
aS'NCT04252664'
p171
aS'NCT04341610'
p172
aS'NCT04372602'
p173
aS'NCT04359290'
p174
aS'NCT04331600'
p175
aS'NCT04403100'
p176
aS'NCT04382950'
p177
aS'NCT04341935'
p178
aS'NCT04343651'
p179
aS'NCT04348513'
p180
aS'NCT04346446'
p181
aS'NCT04405544'
p182
aS'NCT04353245'
p183
aS'NCT04349618'
p184
aS'NCT04306393'
p185
aS'NCT04360096'
p186
aS'NCT04338126'
p187
aS'NCT04363853'
p188
aS'NCT03648372'
p189
aS'NCT04344119'
p190
aS'NCT04334850'
p191
aS'NCT04338906'
p192
aS'NCT04361461'
p193
aS'NCT04374032'
p194
aS'NCT04388579'
p195
aS'NCT04341285'
p196
aS'NCT04405908'
p197
aS'NCT04358211'
p198
aS'NCT04361526'
p199
aS'NCT04365309'
p200
aS'NCT04372472'
p201
aS'NCT04372368'
p202
aS'NCT04366115'
p203
aS'NCT04331613'
p204
ag14
aS'NCT04346355'
p205
aS'NCT04368338'
p206
aS'NCT04355494'
p207
aS'NCT04375397'
p208
aS'NCT04385849'
p209
aS'NCT04325633'
p210
aS'NCT04352465'
p211
aS'NCT04390217'
p212
aS'NCT04273529'
p213
aS'NCT04390191'
p214
aS'NCT04374149'
p215
aS'NCT04401579'
p216
aS'NCT04359667'
p217
aS'NCT04351620'
p218
ag112
aS'NCT04305106'
p219
aS'NCT04361552'
p220
aS'NCT04380376'
p221
aS'NCT04366271'
p222
ag115
ag15
aS'NCT04334044'
p223
aS'NCT04373044'
p224
aS'NCT04370262'
p225
aS'NCT04395482'
p226
aS'NCT03807804'
p227
aS'NCT04344002'
p228
aS'NCT04366219'
p229
aS'NCT04402957'
p230
aS'NCT04288102'
p231
aS'NCT04322396'
p232
aS'NCT04292964'
p233
aS'NCT04362345'
p234
aS'NCT04255017'
p235
aS'NCT04310865'
p236
ag121
aS'NCT04397497'
p237
aS'NCT04380662'
p238
aS'NCT04365127'
p239
ag123
aS'NCT04336254'
p240
aS'NCT04363034'
p241
aS'NCT04374019'
p242
aS'NCT04408209'
p243
ag119
aS'NCT04374071'
p244
aS'NCT04348877'
p245
aS'NCT04401293'
p246
aS'NCT04390503'
p247
aS'NCT04292730'
p248
aS'NCT04374487'
p249
aS'NCT04401527'
p250
aS'NCT04384588'
p251
ag140
aS'NCT04344925'
p252
aS'NCT04372017'
p253
aS'NCT04376593'
p254
aS'NCT04367077'
p255
ag16
aS'NCT04305457'
p256
aS'NCT04326400'
p257
aS'NCT04254874'
p258
aS'NCT04407143'
p259
aS'NCT04352803'
p260
aS'NCT04322565'
p261
aS'NCT04384055'
p262
aS'NCT04392414'
p263
aS'NCT04380519'
p264
ag49
aS'NCT04323800'
p265
aS'NCT04375046'
p266
aS'NCT04370834'
p267
aS'NCT04401410'
p268
ag107
aS'NCT04287686'
p269
aS'NCT04322773'
p270
aS'NCT04377711'
p271
aS'NCT04403477'
p272
aS'NCT04343690'
p273
aS'NCT04346277'
p274
aS'NCT04403243'
p275
aS'NCT04376788'
p276
aS'NCT04365101'
p277
aS'NCT04359095'
p278
aS'NCT04338360'
p279
aS'NCT04397575'
p280
aS'NCT04399889'
p281
aS'NCT04347980'
p282
aS'NCT04342663'
p283
aS'NCT04391712'
p284
aS'NCT04374370'
p285
aS'NCT04395456'
p286
aS'NCT03891420'
p287
aS'NCT04362137'
p288
aS'NCT04382755'
p289
ag7
aS'NCT04391309'
p290
aS'NCT04333355'
p291
aS'NCT04279197'
p292
aS'NCT04371029'
p293
aS'NCT04358003'
p294
aS'NCT04275388'
p295
aS'NCT04361214'
p296
aS'NCT04389710'
p297
aS'NCT04295551'
p298
aS'NCT04354714'
p299
aS'NCT04337359'
p300
aS'NCT04257656'
p301
aS'NCT04348500'
p302
aS'NCT04368377'
p303
aS'NCT04377620'
p304
aS'NCT04312464'
p305
aS'NCT04390412'
p306
aS'NCT04359706'
p307
aS'NCT04350450'
p308
aS'NCT04388826'
p309
aS'NCT04392778'
p310
aS'NCT04372979'
p311
aS'NCT04363866'
p312
aS'NCT04356937'
p313
aS'NCT04395144'
p314
aS'NCT04400058'
p315
ag106
aS'NCT03808922'
p316
aS'NCT04406064'
p317
ag72
aS'NCT04375137'
p318
aS'NCT04366921'
p319
aS'NCT04315987'
p320
aS'NCT04328454'
p321
aS'NCT04312997'
p322
aS'NCT04374591'
p323
aS'NCT04407546'
p324
aS'NCT04377750'
p325
aS'NCT04365699'
p326
aS'NCT04264858'
p327
aS'NCT04362813'
p328
aS'NCT04335071'
p329
aS'NCT04344509'
p330
aS'NCT04358406'
p331
aS'NCT04404361'
p332
aS'NCT04366245'
p333
aS'NCT04369469'
p334
atRp335
sS'inc:psoriasis'
p336
g3
((lp337
g176
aS'NCT04334980'
p338
ag225
aS'NCT04324866'
p339
ag72
aS'NCT04330495'
p340
aS'NCT04335084'
p341
aS'NCT04408456'
p342
aS'NCT04328012'
p343
aS'NCT04333732'
p344
atRp345
sS'exc:mental disorders'
p346
g3
((lp347
S'NCT04365335'
p348
ag91
aS'NCT04341389'
p349
aS'NCT04401449'
p350
aS'NCT04378712'
p351
ag83
aS'NCT04397900'
p352
aS'NCT04342156'
p353
ag250
aS'NCT04354597'
p354
aS'NCT04368845'
p355
aS'NCT04365348'
p356
aS'NCT04337346'
p357
aS'NCT04378257'
p358
ag87
aS'NCT04394455'
p359
aS'NCT04394078'
p360
aS'NCT04382534'
p361
ag92
aS'NCT03261050'
p362
ag167
aS'NCT04394403'
p363
ag98
aS'NCT04359303'
p364
aS'NCT04395755'
p365
aS'NCT04369300'
p366
ag24
aS'NCT04306497'
p367
aS'NCT04370223'
p368
ag94
aS'NCT04374903'
p369
aS'NCT04379466'
p370
ag340
aS'NCT04261517'
p371
ag232
aS'NCT04354259'
p372
ag29
aS'NCT04357769'
p373
aS'NCT04384380'
p374
aS'NCT04348929'
p375
ag312
ag30
aS'NCT04403438'
p376
aS'NCT04356885'
p377
aS'NCT04358549'
p378
ag131
aS'NCT04363606'
p379
aS'NCT04363827'
p380
ag242
aS'NCT04368208'
p381
aS'NCT04338802'
p382
ag21
ag36
ag37
aS'NCT04325048'
p383
aS'NCT04388631'
p384
aS'NCT04337489'
p385
atRp386
sS'exc:epilepsy'
p387
g3
((lp388
S'NCT04359537'
p389
ag349
aS'NCT04351516'
p390
aS'NCT04055376'
p391
aS'NCT04327349'
p392
ag59
ag92
ag338
aS'NCT04324463'
p393
aS'NCT04329611'
p394
aS'NCT04377646'
p395
ag310
aS'NCT04303507'
p396
ag167
aS'NCT04400019'
p397
ag19
aS'NCT04389801'
p398
aS'NCT04394039'
p399
aS'NCT04382625'
p400
aS'NCT04355026'
p401
aS'NCT04364022'
p402
aS'NCT04371406'
p403
ag175
aS'NCT04349228'
p404
aS'NCT04346329'
p405
aS'NCT04389359'
p406
aS'NCT04352933'
p407
ag98
aS'NCT04276987'
p408
aS'NCT04395768'
p409
aS'NCT04374279'
p410
atRp411
sS'gender = male'
p412
g3
((lp413
S'NCT04400682'
p414
ag82
aS'NCT04391829'
p415
aS'NCT04386876'
p416
ag384
aS'NCT04406194'
p417
aS'NCT04407000'
p418
ag239
aS'NCT04368897'
p419
atRp420
sS'inc:respiratory rate'
p421
g3
((lp422
g81
aS'NCT04352400'
p423
ag153
aS'NCT04261426'
p424
aS'NCT04354831'
p425
aS'NCT04351191'
p426
ag160
aS'NCT04349332'
p427
ag168
ag67
aS'NCT04324021'
p428
aS'NCT04386369'
p429
aS'NCT04364009'
p430
ag171
ag177
aS'NCT04323527'
p431
aS'NCT04359615'
p432
ag188
ag193
aS'NCT04408222'
p433
ag200
ag201
ag202
ag14
aS'NCT04354610'
p434
ag209
aS'NCT04317040'
p435
aS'NCT04350684'
p436
ag112
ag230
ag119
ag245
aS'NCT04369989'
p437
aS'NCT04350671'
p438
aS'NCT04395807'
p439
ag123
ag241
ag243
ag127
aS'NCT04390178'
p440
ag233
aS'NCT04360759'
p441
aS'NCT04359316'
p442
ag249
aS'NCT04335123'
p443
ag256
ag408
aS'NCT04293692'
p444
ag269
ag264
aS'NCT04339660'
p445
aS'NCT04361942'
p446
ag266
aS'NCT04346368'
p447
ag267
ag272
ag261
ag276
aS'NCT04273646'
p448
ag278
ag279
ag122
aS'NCT04365738'
p449
aS'NCT04377659'
p450
ag285
aS'NCT04381858'
p451
aS'NCT04338828'
p452
ag288
aS'NCT04385199'
p453
aS'NCT04389385'
p454
ag291
ag294
aS'NCT04343768'
p455
ag297
ag287
aS'NCT04347174'
p456
ag300
aS'NCT04332835'
p457
aS'NCT04397562'
p458
ag332
aS'NCT04327180'
p459
aS'NCT04366232'
p460
ag94
ag369
aS'NCT04405739'
p461
aS'NCT04345601'
p462
ag302
aS'NCT04336462'
p463
ag329
ag331
aS'NCT04290858'
p464
aS'NCT04397757'
p465
atRp466
sS'inc:venous thrombosis'
p467
g3
((lp468
g62
ag216
ag162
ag315
ag204
ag187
ag239
ag212
atRp469
sS'inc:hemorrhage'
p470
g3
((lp471
S'NCT04362085'
p472
ag197
ag227
aS'NCT04352985'
p473
ag260
aS'NCT04405076'
p474
ag161
ag47
ag62
ag173
aS'NCT04359680'
p475
ag204
ag219
ag299
aS'NCT04404426'
p476
aS'NCT04372589'
p477
ag99
atRp478
sS'inc:respiratory tract infections'
p479
g3
((lp480
S'NCT04252118'
p481
aS'NCT04320472'
p482
aS'NCT04341168'
p483
aS'NCT04347278'
p484
aS'NCT04368260'
p485
aS'NCT04341792'
p486
ag104
ag296
aS'NCT04364711'
p487
ag287
ag434
ag108
aS'NCT04356560'
p488
ag344
ag63
aS'NCT04355481'
p489
ag218
ag260
aS'NCT04332991'
p490
ag24
aS'NCT04401202'
p491
ag201
ag118
ag340
ag231
ag322
ag119
ag277
aS'NCT02735707'
p492
ag122
aS'NCT04357366'
p493
ag131
aS'NCT04344951'
p494
ag450
aS'NCT04334954'
p495
aS'NCT04357990'
p496
aS'NCT04298060'
p497
ag111
atRp498
sS'exc:acute respiratory distress'
p499
g3
((lp500
g6
aS'NCT04351763'
p501
aS'NCT04356508'
p502
aS'NCT04343989'
p503
aS'NCT04348461'
p504
ag77
aS'NCT04329195'
p505
aS'NCT04366778'
p506
aS'NCT04397692'
p507
aS'NCT04381052'
p508
ag206
ag179
aS'NCT04344106'
p509
ag209
aS'NCT04353596'
p510
atRp511
sS'inc:positive pregnancy test'
p512
g3
((lp513
S'NCT04342728'
p514
aS'NCT04293887'
p515
aS'NCT04381377'
p516
ag171
ag72
ag260
ag497
ag169
ag301
aS'NCT04290871'
p517
atRp518
sS'inc:pneumothorax'
p519
g3
((lp520
g227
atRp521
sS'exc:critical illness'
p522
g3
((lp523
g6
ag291
aS'NCT04328272'
p524
ag131
aS'NCT04343963'
p525
ag29
ag323
aS'NCT04346589'
p526
ag243
atRp527
sS'exc:extracorporeal membrane oxygenation'
p528
g3
((lp529
g145
ag150
ag123
ag454
aS'NCT04338347'
p530
ag266
aS'NCT04374617'
p531
aS'NCT04378920'
p532
ag423
aS'NCT04357730'
p533
aS'NCT04399317'
p534
aS'NCT04364737'
p535
ag287
aS'NCT04323631'
p536
ag250
ag429
ag11
aS'NCT04384731'
p537
ag435
aS'NCT04395911'
p538
ag62
ag304
ag408
ag302
aS'NCT04371393'
p539
aS'NCT04369742'
p540
aS'NCT04383002'
p541
ag184
aS'NCT04363736'
p542
aS'NCT04380792'
p543
aS'NCT04340232'
p544
aS'NCT04348071'
p545
aS'NCT04347928'
p546
ag269
ag10
aS'NCT04401475'
p547
aS'NCT04382924'
p548
ag73
ag107
ag319
aS'NCT04343144'
p549
aS'NCT04380779'
p550
ag177
aS'NCT04335305'
p551
ag462
aS'NCT04347226'
p552
aS'NCT04366830'
p553
aS'NCT04355728'
p554
aS'NCT04404634'
p555
ag448
ag444
aS'NCT04386720'
p556
ag504
ag331
aS'NCT04356690'
p557
aS'NCT04323761'
p558
aS'NCT04292899'
p559
aS'NCT04376684'
p560
aS'NCT04373707'
p561
ag129
ag453
aS'NCT04346615'
p562
atRp563
sS'exc:fibrillations'
p564
g3
((lp565
g13
ag390
aS'NCT03620409'
p566
ag15
ag61
aS'NCT04379986'
p567
ag62
ag69
aS'NCT04374045'
p568
aS'NCT04334967'
p569
aS'NCT04340544'
p570
aS'NCT04394377'
p571
ag67
ag10
ag65
aS'NCT04382391'
p572
ag73
aS'NCT04406389'
p573
ag462
aS'NCT04346199'
p574
ag33
aS'NCT04355884'
p575
aS'NCT04380688'
p576
atRp577
sS'inc:kidney replacement procedure'
p578
g3
((lp579
g185
aS'NCT04378686'
p580
ag290
ag447
ag171
ag173
aS'NCT04365153'
p581
ag212
aS'NCT04358081'
p582
ag299
ag161
ag274
ag428
ag301
ag343
aS'NCT04336904'
p583
atRp584
sS'inc:azithromycin'
p585
g3
((lp586
S'NCT04366791'
p587
aS'NCT04365582'
p588
ag548
ag291
ag403
ag230
aS'NCT04341870'
p589
aS'NCT04341441'
p590
ag109
aS'NCT04393948'
p591
atRp592
sS'inc:cirrhosis'
p593
g3
((lp594
g459
ag440
ag583
ag430
ag283
ag47
ag163
ag309
ag176
aS'NCT04393246'
p595
aS'NCT04321278'
p596
aS'NCT04397328'
p597
ag333
ag238
ag343
atRp598
sS'exc:hepatitis c'
p599
g3
((lp600
g5
ag81
ag56
ag208
aS'NCT04331795'
p601
ag502
aS'NCT04368728'
p602
aS'NCT04351152'
p603
ag141
aS'NCT04328285'
p604
ag223
ag23
ag224
aS'NCT04398303'
p605
aS'NCT04405570'
p606
aS'NCT04344548'
p607
aS'NCT04362189'
p608
aS'NCT04335136'
p609
aS'NCT04399798'
p610
aS'NCT03983733'
p611
ag97
ag38
atRp612
sS'inc:acute respiratory distress'
p613
g3
((lp614
g127
aS'NCT04390152'
p615
ag294
ag486
aS'NCT04363502'
p616
ag203
ag204
ag282
ag205
aS'NCT04369599'
p617
aS'NCT04390139'
p618
ag211
ag537
ag159
ag504
aS'NCT04326387'
p619
aS'NCT04353674'
p620
aS'NCT04385186'
p621
aS'NCT04372680'
p622
aS'NCT04359407'
p623
ag532
aS'NCT04321421'
p624
ag462
aS'NCT04359862'
p625
ag278
ag303
aS'NCT04340414'
p626
aS'NCT04397796'
p627
ag286
ag334
atRp628
sS'exc:cardiovascular diseases'
p629
g3
((lp630
g349
ag82
ag524
aS'NCT04398147'
p631
ag534
ag296
ag139
ag354
ag208
aS'NCT04355052'
p632
ag338
ag89
ag474
ag130
ag311
ag167
aS'NCT04380532'
p633
aS'NCT04394117'
p634
aS'NCT04326725'
p635
aS'NCT04368156'
p636
aS'NCT04367740'
p637
ag572
ag26
aS'NCT04386616'
p638
ag96
aS'NCT04379622'
p639
aS'NCT04327206'
p640
ag57
aS'NCT04324606'
p641
aS'NCT04385095'
p642
aS'NCT04382560'
p643
ag35
ag189
aS'NCT04319211'
p644
atRp645
sS'inc:macrolides'
p646
g3
((lp647
S'NCT04364815'
p648
ag47
atRp649
sS'exc:renal replacement therapy'
p650
g3
((lp651
S'NCT04380935'
p652
aS'NCT04350593'
p653
aS'NCT04355624'
p654
ag132
aS'NCT04327388'
p655
ag287
ag14
ag435
ag538
aS'NCT04388683'
p656
ag137
aS'NCT04341675'
p657
ag69
ag25
ag369
aS'NCT04316299'
p658
ag423
ag179
aS'NCT04342169'
p659
aS'NCT04334382'
p660
aS'NCT02765191'
p661
ag609
aS'NCT04399980'
p662
ag557
ag240
aS'NCT04394416'
p663
aS'NCT04404218'
p664
atRp665
sS'exc:chronic liver disease'
p666
g3
((lp667
g134
aS'NCT03042143'
p668
ag329
ag93
ag491
ag90
ag135
ag662
ag397
ag461
ag57
aS'NCT04400032'
p669
aS'NCT04363450'
p670
aS'NCT04315896'
p671
ag11
aS'NCT04407130'
p672
aS'NCT04318015'
p673
ag405
ag253
ag211
atRp674
sS'inc:diverticulitis'
p675
g3
((lp676
S'NCT04317092'
p677
atRp678
sS'exc:cardiomyopathies'
p679
g3
((lp680
g8
ag338
aS'NCT04356833'
p681
ag135
ag572
aS'NCT04340921'
p682
aS'NCT04336384'
p683
aS'NCT04347889'
p684
aS'NCT04334148'
p685
ag672
ag14
ag24
ag140
ag566
atRp686
sS'minimum age = 4'
p687
g3
((lp688
S'NCT04343664'
p689
atRp690
sS'maximum age = 88'
p691
g3
((lp692
g195
atRp693
sS'maximum age = 89'
p694
g3
((lp695
S'NCT04342806'
p696
ag255
aS'NCT04397835'
p697
ag544
ag545
aS'NCT04401085'
p698
atRp699
sS'maximum age = 84'
p700
g3
((lp701
S'NCT04386239'
p702
ag25
ag631
atRp703
sS'maximum age = 85'
p704
g3
((lp705
g82
ag200
ag423
aS'NCT04363463'
p706
aS'NCT04333407'
p707
ag249
aS'NCT04346264'
p708
aS'NCT04353271'
p709
aS'NCT04374058'
p710
aS'NCT04401163'
p711
ag602
ag516
ag656
aS'NCT04392453'
p712
ag603
ag114
aS'NCT04369456'
p713
ag605
ag27
aS'NCT04323332'
p714
aS'NCT04371510'
p715
aS'NCT04372004'
p716
ag463
aS'NCT04355962'
p717
aS'NCT04285190'
p718
aS'NCT04381364'
p719
aS'NCT04335032'
p720
ag115
aS'NCT04347681'
p721
aS'NCT04380402'
p722
aS'NCT04387786'
p723
atRp724
sS'maximum age = 80'
p725
g3
((lp726
g150
ag83
aS'NCT04400461'
p727
aS'NCT04323592'
p728
aS'NCT04344600'
p729
ag156
ag538
ag161
ag91
aS'NCT03105102'
p730
ag137
ag67
ag215
ag172
ag26
aS'NCT04358835'
p731
ag589
aS'NCT04347876'
p732
aS'NCT04381000'
p733
aS'NCT04273763'
p734
aS'NCT04407689'
p735
aS'NCT04382651'
p736
ag353
aS'NCT04326920'
p737
aS'NCT04328961'
p738
aS'NCT04306705'
p739
aS'NCT04346043'
p740
aS'NCT04346693'
p741
ag138
ag671
aS'NCT04406545'
p742
ag219
aS'NCT04379076'
p743
aS'NCT04374539'
p744
aS'NCT04251871'
p745
ag222
ag623
aS'NCT04375670'
p746
ag491
aS'NCT04346056'
p747
aS'NCT04402034'
p748
ag230
ag28
ag245
aS'NCT04361032'
p749
aS'NCT04400929'
p750
aS'NCT04320953'
p751
aS'NCT04349241'
p752
ag627
aS'NCT04362111'
p753
ag440
ag350
aS'NCT04353180'
p754
aS'NCT04406246'
p755
aS'NCT04384614'
p756
aS'NCT04371367'
p757
aS'NCT04366856'
p758
ag257
ag361
ag66
ag269
ag609
aS'NCT04397172'
p759
ag266
aS'NCT04382053'
p760
aS'NCT04347369'
p761
aS'NCT04336657'
p762
ag639
aS'NCT04351919'
p763
aS'NCT04374123'
p764
ag30
aS'NCT04389333'
p765
ag378
aS'NCT03398135'
p766
aS'NCT04366323'
p767
ag615
ag132
ag282
aS'NCT04280588'
p768
aS'NCT04396106'
p769
aS'NCT04395300'
p770
ag311
ag313
aS'NCT04359251'
p771
aS'NCT04368884'
p772
ag73
aS'NCT04341480'
p773
aS'NCT04339842'
p774
ag329
aS'NCT04371822'
p775
ag333
atRp776
sS'inc:resuscitation procedure'
p777
g3
((lp778
S'NCT04369820'
p779
ag668
ag290
aS'NCT04351711'
p780
aS'NCT04358783'
p781
ag173
aS'NCT04402879'
p782
aS'NCT04391686'
p783
aS'NCT04403269'
p784
aS'NCT04402827'
p785
ag299
ag434
ag274
aS'NCT04343404'
p786
aS'NCT04366297'
p787
ag278
aS'NCT04376944'
p788
atRp789
sS'exc:glomerular filtration'
p790
g3
((lp791
g145
ag178
aS'NCT04311177'
p792
ag739
aS'NCT04395170'
p793
ag441
ag84
ag287
ag96
ag14
ag440
aS'NCT04359953'
p794
ag457
ag128
ag606
aS'NCT04363060'
p795
aS'NCT04322682'
p796
ag684
ag106
ag604
ag219
aS'NCT04354155'
p797
aS'NCT04334928'
p798
aS'NCT04350320'
p799
ag224
ag216
ag491
aS'NCT04280705'
p800
ag615
ag25
aS'NCT04384497'
p801
ag560
aS'NCT04341038'
p802
ag340
ag135
aS'NCT04329832'
p803
ag659
ag374
ag405
ag50
ag278
aS'NCT04341584'
p804
aS'NCT04370288'
p805
ag461
aS'NCT04403685'
p806
ag275
aS'NCT04312009'
p807
ag378
ag660
ag240
aS'NCT04351581'
p808
ag286
aS'NCT04340349'
p809
aS'NCT04332380'
p810
atRp811
sS'exc:rhinorrhea'
p812
g3
((lp813
g619
aS'NCT04373733'
p814
aS'NCT04405466'
p815
aS'NCT04354818'
p816
atRp817
sS'maximum age = 110'
p818
g3
((lp819
S'NCT04337762'
p820
aS'NCT04407156'
p821
aS'NCT04361838'
p822
ag84
ag13
aS'NCT04359875'
p823
atRp824
sS'maximum age = 114'
p825
g3
((lp826
g55
atRp827
sS'exc:liver failure'
p828
g3
((lp829
g533
aS'NCT04367168'
p830
aS'NCT04351906'
p831
aS'NCT04357613'
p832
aS'NCT04402060'
p833
ag14
aS'NCT04344379'
p834
aS'NCT04345653'
p835
aS'NCT04398290'
p836
aS'NCT04360551'
p837
ag554
ag795
ag443
ag604
aS'NCT04392531'
p838
ag745
aS'NCT04363840'
p839
aS'NCT04347512'
p840
ag571
ag399
aS'NCT04362059'
p841
ag403
ag71
aS'NCT04344457'
p842
aS'NCT04365231'
p843
ag731
aS'NCT04334629'
p844
ag404
ag261
aS'NCT04360980'
p845
ag625
ag749
aS'NCT04356495'
p846
aS'NCT04371107'
p847
ag275
aS'NCT04326790'
p848
ag242
ag627
ag193
aS'NCT04345692'
p849
ag243
atRp850
sS'exc:organ transplantation'
p851
g3
((lp852
S'NCT04387409'
p853
aS'NCT04388709'
p854
ag24
ag47
aS'NCT03852537'
p855
ag549
ag230
aS'NCT04365166'
p856
ag728
aS'NCT04365322'
p857
aS'NCT04328441'
p858
aS'NCT04348370'
p859
ag591
aS'NCT04373291'
p860
atRp861
sS'maximum age = 19'
p862
g3
((lp863
S'NCT04299711'
p864
atRp865
sS'maximum age = 18'
p866
g3
((lp867
S'NCT04336761'
p868
aS'NCT04336956'
p869
aS'NCT04404244'
p870
aS'NCT04377568'
p871
aS'NCT04270383'
p872
aS'NCT04406558'
p873
aS'NCT04330261'
p874
aS'NCT04335773'
p875
aS'NCT04395833'
p876
ag797
atRp877
sS'exc:septic shock'
p878
g3
((lp879
S'NCT02517489'
p880
ag6
ag132
ag282
ag390
ag566
ag435
ag458
ag303
ag306
aS'NCT04344288'
p881
ag264
aS'NCT04397666'
p882
ag682
aS'NCT04327401'
p883
ag119
ag278
ag122
ag752
ag558
ag525
aS'NCT04340050'
p884
ag188
ag721
atRp885
sS'maximum age = 10'
p886
g3
((lp887
S'NCT04377737'
p888
atRp889
sS'maximum age = 13'
p890
g3
((lp891
S'NCT04375410'
p892
atRp893
sS'maximum age = 12'
p894
g3
((lp895
S'NCT04370210'
p896
atRp897
sS'maximum age = 15'
p898
g3
((lp899
S'NCT04347408'
p900
atRp901
sS'exc:respiratory rate'
p902
g3
((lp903
g251
ag107
ag390
aS'NCT04374695'
p904
ag156
aS'NCT04342221'
p905
aS'NCT04342650'
p906
aS'NCT04343729'
p907
ag63
ag361
ag311
aS'NCT04352751'
p908
aS'NCT04056689'
p909
ag884
ag752
aS'NCT04316728'
p910
ag583
ag176
aS'NCT04402203'
p911
aS'NCT04359654'
p912
aS'NCT04359901'
p913
ag131
ag184
ag781
aS'NCT04393038'
p914
ag706
aS'NCT04354389'
p915
ag721
ag410
ag810
atRp916
sS'maximum age = 17'
p917
g3
((lp918
S'NCT04355533'
p919
aS'NCT04157296'
p920
aS'NCT04379089'
p921
aS'NCT04407923'
p922
aS'NCT04408027'
p923
atRp924
sS'inc:systolic pressure'
p925
g3
((lp926
g458
ag474
ag497
ag203
ag278
aS'NCT04371471'
p927
ag272
aS'NCT04340557'
p928
ag161
aS'NCT04360278'
p929
ag634
ag428
ag510
atRp930
sS'inc:glomerular filtration'
p931
g3
((lp932
g170
ag447
ag171
ag558
ag315
ag72
ag428
ag161
ag634
ag277
ag301
atRp933
sS'minimum age = 30'
p934
g3
((lp935
S'NCT04342637'
p936
ag329
ag106
ag428
aS'NCT04403386'
p937
ag909
ag392
atRp938
sS'minimum age = 35'
p939
g3
((lp940
g609
atRp941
sS'inc:fluid overload'
p942
g3
((lp943
g227
atRp944
sS'inc:kidney failure'
p945
g3
((lp946
g251
aS'NCT04343742'
p947
ag516
ag558
aS'NCT04338698'
p948
ag203
ag274
ag590
ag460
ag265
atRp949
sS'exc:psoriasis'
p950
g3
((lp951
S'NCT04334512'
p952
ag353
ag390
ag354
ag140
ag253
ag156
ag15
ag426
ag90
ag395
ag604
ag685
aS'NCT04331834'
p953
ag342
ag312
ag49
ag24
ag93
ag339
ag369
ag843
aS'NCT04346667'
p954
ag232
ag404
ag659
ag660
ag763
ag640
aS'NCT04316377'
p955
ag398
aS'NCT04385264'
p956
ag131
ag641
ag33
ag803
ag738
ag809
atRp957
sS'inc:anaphylaxis'
p958
g3
((lp959
g474
ag338
ag197
ag315
ag72
atRp960
sS'exc:hypoxia'
p961
g3
((lp962
g215
ag256
aS'NCT04333628'
p963
ag525
ag735
ag23
ag464
ag743
aS'NCT04363216'
p964
ag915
ag46
ag209
aS'NCT04384445'
p965
atRp966
sS'exc:intubation intratracheal'
p967
g3
((lp968
g880
ag122
aS'NCT04391140'
p969
ag458
aS'NCT04366141'
p970
ag71
ag427
aS'NCT04358939'
p971
aS'NCT04381923'
p972
ag551
aS'NCT04298814'
p973
ag119
ag653
ag314
ag107
atRp974
sS'exc:myocardial ischemia'
p975
g3
((lp976
S'NCT04308668'
p977
aS'NCT04390061'
p978
ag652
ag380
aS'NCT04389671'
p979
ag25
ag581
ag638
ag834
ag338
ag397
ag155
ag154
ag399
aS'NCT04392427'
p980
atRp981
sS'exc:lymphoma'
p982
g3
((lp983
g5
aS'NCT04344041'
p984
ag266
ag134
aS'NCT04384549'
p985
aS'NCT04379336'
p986
ag269
ag853
aS'NCT02656381'
p987
ag638
ag177
ag287
ag730
ag858
ag859
aS'NCT04379518'
p988
ag189
ag860
atRp989
sS'exc:bone marrow transplantation'
p990
g3
((lp991
g853
ag857
ag660
ag662
ag89
ag191
ag307
ag184
aS'NCT04357444'
p992
ag549
aS'NCT04333368'
p993
ag803
ag372
aS'NCT04333420'
p994
ag858
ag859
ag986
ag59
ag809
ag601
ag860
atRp995
sS'exc:pneumothorax'
p996
g3
((lp997
g463
ag149
ag969
ag214
ag439
aS'NCT04343183'
p998
aS'NCT04325906'
p999
aS'NCT04386265'
p1000
ag184
ag831
ag971
aS'NCT04360837'
p1001
aS'NCT04392089'
p1002
ag706
aS'NCT04361435'
p1003
aS'NCT04332081'
p1004
ag836
ag771
aS'NCT04350710'
p1005
ag206
ag841
atRp1006
sS'inc:hormonal contraception'
p1007
g3
((lp1008
g792
ag583
ag807
ag474
ag798
aS'NCT04357782'
p1009
atRp1010
sS'inc:mycoses'
p1011
g3
((lp1012
g316
ag317
aS'NCT04329650'
p1013
ag315
ag173
ag581
aS'NCT04310228'
p1014
ag552
ag299
ag914
atRp1015
sS'exc:protection'
p1016
g3
((lp1017
g880
aS'NCT04341415'
p1018
ag857
aS'NCT04368221'
p1019
aS'NCT04376476'
p1020
aS'NCT04341519'
p1021
aS'NCT04361604'
p1022
ag992
aS'NCT04366739'
p1023
aS'NCT04371679'
p1024
ag927
ag238
ag434
aS'NCT04383886'
p1025
aS'NCT04405726'
p1026
aS'NCT04355429'
p1027
ag537
aS'NCT04370171'
p1028
ag985
aS'NCT04405986'
p1029
aS'NCT04337190'
p1030
ag984
aS'NCT04406324'
p1031
ag622
ag460
aS'NCT04360811'
p1032
aS'NCT04367545'
p1033
aS'NCT04355364'
p1034
ag847
aS'NCT04397588'
p1035
aS'NCT04373200'
p1036
aS'NCT04371744'
p1037
ag348
aS'NCT04405492'
p1038
aS'NCT04354766'
p1039
aS'NCT04388657'
p1040
ag370
aS'NCT04406363'
p1041
aS'NCT04385017'
p1042
ag738
aS'NCT04368832'
p1043
ag832
aS'NCT04325646'
p1044
aS'NCT04352348'
p1045
aS'NCT04393428'
p1046
aS'NCT04371965'
p1047
ag191
ag783
aS'NCT04392401'
p1048
aS'NCT04373811'
p1049
aS'NCT04338841'
p1050
aS'NCT04376879'
p1051
atRp1052
sS'minimum age = 7'
p1053
g3
((lp1054
g920
ag896
ag748
aS'NCT04359849'
p1055
atRp1056
sS'minimum age = 6'
p1057
g3
((lp1058
g300
aS'NCT04383717'
p1059
ag285
aS'NCT04399733'
p1060
ag708
aS'NCT04383470'
p1061
atRp1062
sS'minimum age = 5'
p1063
g3
((lp1064
S'NCT04381871'
p1065
aS'NCT04403672'
p1066
aS'NCT04347382'
p1067
aS'NCT04323345'
p1068
ag57
ag1044
aS'NCT04341493'
p1069
atRp1070
sS'inc:respiratory distress syndrome adult'
p1071
g3
((lp1072
g145
ag127
ag150
ag615
ag199
ag999
ag1005
ag294
ag831
ag992
ag203
ag204
ag534
ag282
ag728
ag617
aS'NCT04381338'
p1073
ag205
ag207
aS'NCT04406688'
p1074
ag211
ag537
ag159
ag969
ag538
aS'NCT04325061'
p1075
ag62
ag304
ag217
ag306
ag462
ag603
ag309
ag278
ag621
ag993
ag669
ag622
ag460
aS'NCT04288713'
p1076
ag264
ag668
ag1034
ag759
ag623
ag1036
ag429
ag681
ag226
ag227
aS'NCT04395105'
p1077
ag255
ag779
ag883
ag532
ag784
ag624
ag28
ag539
ag476
ag553
aS'NCT04368975'
p1078
ag625
ag277
aS'NCT04354584'
p1079
ag556
aS'NCT04383678'
p1080
ag303
ag1002
ag196
ag619
ag184
ag616
ag971
ag626
aS'NCT04393402'
p1081
aS'NCT04311697'
p1082
ag627
ag717
ag286
aS'NCT04408326'
p1083
ag334
ag620
aS'NCT04351243'
p1084
aS'NCT04350580'
p1085
atRp1086
sS'minimum age = 3'
p1087
g3
((lp1088
S'NCT04333550'
p1089
ag888
aS'NCT04371432'
p1090
ag11
atRp1091
sS'minimum age = 2'
p1092
g3
((lp1093
g900
ag267
atRp1094
sS'minimum age = 1'
p1095
g3
((lp1096
S'NCT04384471'
p1097
ag484
ag747
aS'NCT04245631'
p1098
aS'NCT04399252'
p1099
ag1026
aS'NCT04359225'
p1100
aS'NCT04360707'
p1101
aS'NCT04393142'
p1102
atRp1103
sS'exc:home oxygen'
p1104
g3
((lp1105
S'NCT04264533'
p1106
ag662
ag504
ag117
ag25
ag605
aS'NCT04373161'
p1107
aS'NCT04268537'
p1108
ag551
aS'NCT04320511'
p1109
ag462
ag154
ag554
ag669
ag184
ag537
ag964
atRp1110
sS'inc:chronic disease'
p1111
g3
((lp1112
g414
aS'NCT04372082'
p1113
aS'NCT04379297'
p1114
ag251
ag473
ag106
ag417
ag224
ag416
ag418
ag92
ag379
ag98
ag167
aS'NCT04396353'
p1115
ag349
ag20
aS'NCT04406038'
p1116
aS'NCT04400448'
p1117
ag459
aS'NCT04390126'
p1118
atRp1119
sS'minimum age = 8'
p1120
g3
((lp1121
g762
ag698
ag987
atRp1122
sS'inc:thromboembolism'
p1123
g3
((lp1124
S'NCT04390464'
p1125
ag216
ag203
ag212
atRp1126
sS'inc:heart failure'
p1127
g3
((lp1128
g290
ag653
ag581
ag203
aS'NCT04333914'
p1129
ag250
ag253
ag394
ag149
ag214
ag597
ag63
ag163
ag219
ag460
ag428
ag510
ag343
ag170
ag227
aS'NCT04357535'
p1130
ag72
ag322
ag1118
ag274
ag326
ag121
ag238
ag329
ag956
ag283
ag123
ag663
ag189
ag161
ag333
ag576
atRp1131
sS'inc:signs and symptoms respiratory'
p1132
g3
((lp1133
g103
aS'NCT04323878'
p1134
ag198
ag199
ag47
ag1098
ag151
aS'NCT04324073'
p1135
aS'NCT04346797'
p1136
ag282
ag535
ag193
ag425
ag792
ag109
ag157
ag128
ag619
ag152
ag179
ag452
aS'NCT04362956'
p1137
aS'NCT04379037'
p1138
ag430
aS'NCT04325672'
p1139
aS'NCT04408040'
p1140
aS'NCT04333251'
p1141
aS'NCT04401436'
p1142
aS'NCT04326075'
p1143
ag122
ag176
ag589
ag372
ag119
ag1075
aS'NCT04351542'
p1144
ag555
ag239
ag833
ag722
ag487
aS'NCT04374565'
p1145
aS'NCT04345549'
p1146
aS'NCT04348240'
p1147
aS'NCT04321369'
p1148
ag988
atRp1149
sS'exc:diastole'
p1150
g3
((lp1151
g963
ag122
ag16
ag769
aS'NCT04338009'
p1152
ag218
ag186
ag26
ag219
ag107
ag119
ag571
aS'NCT04366050'
p1153
ag808
ag50
ag443
ag546
atRp1154
sS'inc:lung diseases obstructive'
p1155
g3
((lp1156
g121
ag176
ag156
ag218
ag251
ag170
ag106
ag163
ag72
ag278
ag242
ag296
ag220
ag333
ag169
ag209
ag253
ag140
atRp1157
sS'exc:resuscitation procedure'
p1158
g3
((lp1159
g706
ag6
ag779
ag1050
ag574
ag473
ag70
ag782
ag783
ag984
ag669
ag372
ag994
ag576
ag566
ag204
ag714
ag1129
atRp1160
sS'exc:oral medication'
p1161
g3
((lp1162
g138
ag122
ag192
ag8
aS'NCT04307693'
p1163
ag524
aS'NCT04348695'
p1164
ag332
ag672
ag33
aS'NCT04405921'
p1165
ag1014
ag13
ag155
ag633
ag835
ag536
ag410
ag119
aS'NCT04403646'
p1166
atRp1167
sS'inc:kidney glomerulus'
p1168
g3
((lp1169
g170
ag447
ag171
ag558
ag315
ag72
ag428
ag161
ag634
ag277
ag301
atRp1170
sS'exc:bacterial infections'
p1171
g3
((lp1172
S'NCT04350931'
p1173
ag1136
ag353
ag858
aS'NCT04345991'
p1174
ag860
ag853
ag166
ag112
ag48
ag859
ag115
ag215
ag270
aS'NCT04332094'
p1175
aS'NCT04330638'
p1176
ag804
ag610
ag450
ag1135
ag188
aS'NCT04393051'
p1177
ag753
aS'NCT04331808'
p1178
ag289
atRp1179
sS'inc:myasthenias'
p1180
g3
((lp1181
g341
ag344
atRp1182
sS'inc:hepatitis b virus'
p1183
g3
((lp1184
g414
ag197
ag266
ag430
ag267
ag474
ag417
ag416
ag418
ag230
ag177
ag551
ag189
ag269
ag179
aS'NCT04342182'
p1185
atRp1186
sS'exc:respiratory tract infections'
p1187
g3
((lp1188
g145
ag880
aS'NCT04343248'
p1189
ag104
aS'NCT04290780'
p1190
ag103
ag490
ag767
ag390
ag1102
aS'NCT04353141'
p1191
ag310
ag590
ag24
ag316
aS'NCT04331899'
p1192
ag94
ag475
aS'NCT04350736'
p1193
ag27
ag405
ag111
aS'NCT04405999'
p1194
ag378
ag986
aS'NCT04313023'
p1195
ag240
ag915
ag409
atRp1196
sS'inc:sore to touch'
p1197
g3
((lp1198
S'NCT04354857'
p1199
ag490
ag151
ag296
ag247
ag107
ag109
ag394
ag1146
ag214
ag111
ag218
aS'NCT04391946'
p1200
ag260
aS'NCT04335630'
p1201
ag179
ag49
ag782
ag178
ag94
ag135
ag372
aS'NCT04408391'
p1202
ag119
ag1144
ag716
ag122
ag722
ag1059
ag487
ag1147
ag193
ag914
atRp1203
sS'inc:myocardial ischemia'
p1204
g3
((lp1205
S'NCT04379453'
p1206
aS'NCT04357314'
p1207
ag72
ag581
ag189
ag326
ag344
atRp1208
sS'exc:myasthenias'
p1209
g3
((lp1210
g395
aS'NCT04339816'
p1211
aS'NCT04353128'
p1212
ag390
ag905
ag156
aS'NCT04336748'
p1213
ag814
ag838
ag798
ag19
ag398
ag400
ag759
ag403
ag843
ag175
ag953
ag232
ag952
ag956
ag131
atRp1214
sS'exc:serum creatinine level'
p1215
g3
((lp1216
g545
ag300
ag69
ag332
ag656
ag340
ag84
ag28
ag288
aS'NCT04355936'
p1217
ag263
ag1153
atRp1218
sS'inc:critical illness'
p1219
g3
((lp1220
S'NCT04405310'
p1221
ag86
aS'NCT04350073'
p1222
ag203
ag1024
aS'NCT04376905'
p1223
aS'NCT04395716'
p1224
aS'NCT04336345'
p1225
ag287
ag382
ag188
ag456
ag109
ag204
aS'NCT04372576'
p1226
atRp1227
sS'exc:obesity'
p1228
g3
((lp1229
g16
aS'NCT04390022'
p1230
ag637
ag1140
ag449
ag184
aS'NCT04391920'
p1231
aS'NCT04193878'
p1232
ag783
aS'NCT04356482'
p1233
aS'NCT04384250'
p1234
ag454
ag314
ag181
ag537
atRp1235
sS'maximum age = 55'
p1236
g3
((lp1237
g81
ag641
ag937
aS'NCT04327531'
p1238
ag908
ag644
aS'NCT04261270'
p1239
aS'NCT04403581'
p1240
atRp1241
sS'maximum age = 50'
p1242
g3
((lp1243
S'NCT04383548'
p1244
ag426
ag524
aS'NCT04268784'
p1245
ag415
ag89
ag1193
aS'NCT04357028'
p1246
aS'NCT04385914'
p1247
ag381
ag1234
aS'NCT04354441'
p1248
ag954
aS'NCT03922334'
p1249
aS'NCT04315870'
p1250
atRp1251
sS'exc:colchicine'
p1252
g3
((lp1253
g123
ag830
ag83
aS'NCT04371523'
p1254
aS'NCT04360122'
p1255
aS'NCT04328480'
p1256
ag794
ag796
ag309
ag840
aS'NCT04375202'
p1257
ag403
aS'NCT04363437'
p1258
ag843
aS'NCT04315948'
p1259
ag261
aS'NCT04392128'
p1260
ag845
aS'NCT04392141'
p1261
ag722
ag275
ag848
ag557
ag847
atRp1262
sS'maximum age = 59'
p1263
g3
((lp1264
g648
ag20
ag1230
ag98
atRp1265
sS'exc:neutropenia'
p1266
g3
((lp1267
g119
aS'NCT04363632'
p1268
ag1099
aS'NCT04398004'
p1269
ag655
ag156
ag979
ag1102
ag87
ag601
aS'NCT04361903'
p1270
ag1164
ag223
ag216
ag560
ag270
ag1175
ag952
ag855
ag625
ag122
ag662
ag986
ag191
ag738
ag307
atRp1271
sS'exc:therapeutic immunosuppression'
p1272
g3
((lp1273
g103
ag637
ag767
ag615
ag1020
ag266
aS'NCT04346017'
p1274
ag1099
ag1173
ag339
ag655
ag287
ag128
aS'NCT04363346'
p1275
ag634
aS'NCT04386044'
p1276
ag979
aS'NCT04372186'
p1277
ag87
ag538
ag1076
ag602
ag89
ag415
ag307
ag603
ag230
ag92
ag621
aS'NCT04362124'
p1278
ag137
ag1234
ag881
ag669
ag657
ag215
ag547
ag1230
aS'NCT04408001'
p1279
ag985
aS'NCT04382131'
p1280
ag269
ag369
aS'NCT04401033'
p1281
ag177
ag551
ag372
ag552
ag857
ag476
aS'NCT04371640'
p1282
ag640
ag237
ag275
ag662
ag281
ag856
aS'NCT04366180'
p1283
ag98
ag904
aS'NCT04357808'
p1284
aS'NCT04273321'
p1285
atRp1286
sS'inc:impaired cognition'
p1287
g3
((lp1288
g197
aS'NCT04407663'
p1289
aS'NCT04212442'
p1290
atRp1291
sS'minimum age = 75'
p1292
g3
((lp1293
g784
aS'NCT04337788'
p1294
atRp1295
sS'inc:renal replacement therapy'
p1296
g3
((lp1297
g185
ag580
ag290
ag447
ag582
ag171
ag173
ag581
ag212
ag219
ag299
ag161
ag274
ag428
ag301
ag343
ag583
atRp1298
sS'inc:vasoconstrictor agents'
p1299
g3
((lp1300
S'NCT04337983'
p1301
ag429
ag227
ag473
ag431
ag620
ag173
aS'NCT03680274'
p1302
aS'NCT04401150'
p1303
ag188
ag299
ag109
ag264
ag278
ag492
atRp1304
sS'minimum age = 70'
p1305
g3
((lp1306
S'NCT04407390'
p1307
aS'NCT04333849'
p1308
aS'NCT04362943'
p1309
ag832
ag984
aS'NCT04343781'
p1310
aS'NCT04381312'
p1311
aS'NCT04393649'
p1312
aS'NCT04321265'
p1313
atRp1314
sS'maximum age = 20'
p1315
g3
((lp1316
S'NCT04278404'
p1317
aS'NCT03710746'
p1318
atRp1319
sS'maximum age = 21'
p1320
g3
((lp1321
S'NCT04395781'
p1322
atRp1323
sS'maximum age = 24'
p1324
g3
((lp1325
S'NCT04061382'
p1326
aS'NCT04371315'
p1327
atRp1328
sS'maximum age = 25'
p1329
g3
((lp1330
S'NCT04371250'
p1331
aS'NCT04360863'
p1332
aS'NCT03793673'
p1333
atRp1334
sS'maximum age = 26'
p1335
g3
((lp1336
S'NCT04173663'
p1337
atRp1338
sS'exc:immunologic deficiency syndromes'
p1339
g3
((lp1340
g5
ag81
ag1042
ag1020
aS'NCT04330144'
p1341
ag1281
ag631
ag57
ag1255
ag287
ag858
ag390
aS'NCT04358809'
p1342
ag208
aS'NCT04396067'
p1343
ag601
ag59
ag860
aS'NCT04299152'
p1344
ag986
ag602
ag89
ag332
aS'NCT04353518'
p1345
ag853
ag141
ag92
ag311
ag854
ag859
ag20
ag963
ag224
ag985
ag25
ag662
ag560
aS'NCT04335747'
p1346
ag340
ag551
ag1259
ag96
ag607
ag608
ag640
ag493
ag610
ag329
ag281
ag378
ag191
ag77
ag525
ag97
ag34
ag17
ag507
ag98
ag189
aS'NCT04339712'
p1347
ag338
ag38
ag641
atRp1348
sS'exc:coronavirus infections'
p1349
g3
((lp1350
g734
aS'NCT04291729'
p1351
ag298
ag98
ag60
ag29
ag182
ag810
atRp1352
sS'exc:embolism'
p1353
g3
((lp1354
g145
ag463
aS'NCT04332042'
p1355
ag610
ag62
ag71
ag978
ag224
ag605
ag573
ag219
aS'NCT04313322'
p1356
ag1177
ag161
ag29
ag37
ag408
ag331
aS'NCT04360824'
p1357
atRp1358
sS'inc:respiration disorders'
p1359
g3
((lp1360
g195
ag94
ag956
ag227
ag123
ag72
ag459
ag230
ag260
aS'NCT04408248'
p1361
ag547
ag928
aS'NCT04343001'
p1362
ag552
ag179
ag673
ag277
ag312
atRp1363
sS'inc:lopinavir'
p1364
g3
((lp1365
g588
ag291
ag591
ag47
ag230
ag176
aS'NCT04344730'
p1366
ag986
ag277
ag343
atRp1367
sS'inc:angina pectoris'
p1368
g3
((lp1369
g219
ag161
ag123
ag203
ag296
ag1129
ag250
ag189
ag428
ag663
atRp1370
sS'exc:intubation'
p1371
g3
((lp1372
g880
ag290
ag999
ag1233
ag653
aS'NCT04385823'
p1373
aS'NCT04350723'
p1374
ag107
ag973
aS'NCT04365608'
p1375
ag601
aS'NCT04326452'
p1376
ag969
ag458
aS'NCT04348656'
p1377
ag656
ag392
ag427
aS'NCT04320056'
p1378
ag314
ag119
ag24
ag970
ag227
ag71
ag23
ag972
aS'NCT04344561'
p1379
ag551
ag372
ag530
ag274
ag75
ag122
aS'NCT04331366'
p1380
ag256
aS'NCT04385576'
p1381
aS'NCT04357340'
p1382
ag557
ag971
ag1232
aS'NCT04364893'
p1383
ag34
ag507
ag164
ag64
ag433
atRp1384
sS'inc:bone marrow transplantation'
p1385
g3
((lp1386
g440
ag283
aS'NCT04387656'
p1387
ag581
ag461
ag296
ag1129
ag222
atRp1388
sS'inc:chloroquine'
p1389
g3
((lp1390
g587
ag548
aS'NCT04349371'
p1391
ag291
ag394
aS'NCT04356417'
p1392
ag490
ag736
aS'NCT04352946'
p1393
ag271
ag589
ag1145
ag986
ag109
ag230
ag591
ag374
ag343
ag344
atRp1394
sS'exc:pneumonia'
p1395
g3
((lp1396
g145
aS'NCT04359693'
p1397
ag6
ag43
ag440
ag530
ag351
ag47
ag1098
aS'NCT04405843'
p1398
aS'NCT04403932'
p1399
aS'NCT04322786'
p1400
ag677
ag973
ag155
ag454
ag59
ag736
ag1027
ag632
aS'NCT04302688'
p1401
ag15
ag1351
ag458
ag227
ag62
ag408
ag603
ag444
ag310
ag1233
ag539
ag1382
ag48
ag312
ag492
aS'NCT04327505'
p1402
aS'NCT04383535'
p1403
ag880
ag206
ag1230
ag583
aS'NCT04356677'
p1404
ag491
ag801
ag843
aS'NCT04344431'
p1405
ag176
aS'NCT04261907'
p1406
ag773
ag1175
ag560
ag29
ag855
ag154
ag374
ag448
ag278
ag75
ag327
ag463
ag237
ag49
ag447
ag734
ag331
ag525
ag136
ag33
aS'NCT04345276'
p1407
ag496
aS'NCT04371289'
p1408
aS'NCT04388514'
p1409
ag988
ag1239
ag810
atRp1410
sS'inc:pneumonia'
p1411
g3
((lp1412
g145
ag8
ag1355
aS'NCT04357860'
p1413
aS'NCT04358588'
p1414
ag96
ag261
ag151
aS'NCT04345445'
p1415
ag728
ag424
ag445
aS'NCT04318301'
p1416
ag154
aS'NCT04320615'
p1417
ag632
aS'NCT04365959'
p1418
aS'NCT04365764'
p1419
ag1277
aS'NCT04335162'
p1420
ag128
aS'NCT04391127'
p1421
ag795
ag62
ag160
ag277
ag1270
aS'NCT04324996'
p1422
aS'NCT04323514'
p1423
ag278
ag984
ag881
ag169
ag657
aS'NCT04374526'
p1424
ag267
ag199
ag457
ag172
ag515
ag325
ag638
ag589
aS'NCT04372199'
p1425
ag179
aS'NCT04382794'
p1426
ag182
aS'NCT04379310'
p1427
aS'NCT04394182'
p1428
ag734
ag184
ag971
ag115
ag1232
aS'NCT04279782'
p1429
aS'NCT04359511'
p1430
ag237
ag194
aS'NCT04343092'
p1431
ag545
ag1256
ag652
aS'NCT04366206'
p1432
ag200
ag207
aS'NCT04394208'
p1433
ag1098
aS'NCT04366752'
p1434
ag655
ag1129
ag702
aS'NCT04393727'
p1435
ag210
ag60
ag217
ag872
aS'NCT04279795'
p1436
aS'NCT04376840'
p1437
aS'NCT04326426'
p1438
ag67
ag221
ag158
ag315
aS'NCT04382235'
p1439
ag223
aS'NCT04355637'
p1440
ag225
ag227
aS'NCT04332666'
p1441
ag1405
ag29
ag231
ag371
ag233
aS'NCT04377477'
p1442
ag235
ag1378
ag236
ag461
ag193
ag574
ag662
aS'NCT04324684'
p1443
ag720
aS'NCT04382547'
p1444
ag576
aS'NCT04280224'
p1445
ag880
aS'NCT04363814'
p1446
aS'NCT04380818'
p1447
ag481
ag552
ag1020
ag1013
aS'NCT04302519'
p1448
ag444
aS'NCT04348448'
p1449
ag43
aS'NCT04273581'
p1450
ag994
ag1373
aS'NCT04386564'
p1451
ag836
ag166
aS'NCT04275245'
p1452
ag757
ag260
ag658
ag408
ag258
ag603
aS'NCT04408378'
p1453
ag1351
ag621
aS'NCT04252274'
p1454
ag75
ag544
ag263
ag264
ag1403
ag1034
ag526
ag1257
aS'NCT04315298'
p1455
ag760
ag978
ag840
ag136
ag383
ag855
ag275
ag11
ag448
aS'NCT04269525'
p1456
ag191
ag781
ag1135
ag224
aS'NCT04365634'
p1457
ag34
ag451
ag107
ag561
ag1285
ag212
ag46
ag767
aS'NCT04291053'
p1458
ag23
ag531
ag295
ag132
ag240
ag1136
ag1040
ag298
ag973
aS'NCT04365439'
p1459
ag1027
aS'NCT04368013'
p1460
ag768
ag969
ag1401
ag302
ag303
ag619
ag1407
ag1106
ag310
aS'NCT04387799'
p1461
ag1177
ag542
ag14
ag460
ag382
ag114
aS'NCT04345861'
p1462
ag1138
aS'NCT04401228'
p1463
ag547
ag36
ag368
ag454
ag25
ag549
aS'NCT04329507'
p1464
ag1379
ag321
ag1406
aS'NCT04388527'
p1465
ag1075
ag323
aS'NCT04325919'
p1466
ag327
ag587
ag328
ag610
ag329
ag446
ag77
ag1137
ag551
aS'NCT04379531'
p1467
ag904
ag497
ag1284
ag333
ag334
ag465
atRp1468
sS'exc:renal insufficiency'
p1469
g3
((lp1470
g805
ag1257
aS'NCT04341207'
p1471
ag194
ag61
ag378
ag799
ag1270
ag94
ag240
ag175
ag137
ag1357
aS'NCT04405271'
p1472
ag804
ag561
ag763
ag443
ag749
atRp1473
sS'exc:thrombocytopenia'
p1474
g3
((lp1475
g485
ag423
ag156
ag601
ag61
ag62
ag90
ag1270
ag69
ag1231
aS'NCT03331445'
p1476
ag1164
ag839
ag67
aS'NCT04345848'
p1477
ag223
ag93
ag65
ag70
ag73
ag1175
ag119
ag1357
ag122
ag473
ag1246
ag738
ag561
atRp1478
sS'inc:lymphoma'
p1479
g3
((lp1480
g5
ag316
aS'NCT04386512'
p1481
aS'NCT04390542'
p1482
ag1200
ag268
ag189
ag324
aS'NCT04352556'
p1483
atRp1484
sS'exc:cirrhosis'
p1485
g3
((lp1486
S'NCT04325893'
p1487
ag854
ag792
ag250
ag992
ag728
ag58
ag155
ag566
ag709
ag394
ag156
ag60
ag907
ag796
ag90
ag50
ag459
ag157
ag311
ag993
ag184
ag253
ag840
ag657
ag799
ag93
ag685
ag1258
ag457
ag23
ag369
ag175
ag461
ag372
ag29
ag111
ag805
ag806
ag807
ag77
ag744
ag37
ag243
ag810
atRp1488
sS'inc:nasopharynx'
p1489
g3
((lp1490
g83
ag616
ag426
ag91
ag167
ag403
ag175
ag268
ag476
ag1260
ag845
ag181
ag955
ag1244
aS'NCT04353401'
p1491
aS'NCT04395599'
p1492
ag274
ag286
ag43
ag503
ag82
ag209
aS'NCT04382781'
p1493
ag709
ag415
aS'NCT04362969'
p1494
ag569
ag744
ag1142
aS'NCT04333654'
p1495
ag573
ag135
ag234
ag795
ag75
ag461
ag752
aS'NCT04393792'
p1496
ag783
ag1141
ag1422
aS'NCT04354558'
p1497
ag130
ag247
ag508
ag1442
ag1451
aS'NCT04395794'
p1498
aS'NCT04355715'
p1499
aS'NCT04354870'
p1500
ag66
ag262
ag840
aS'NCT04402814'
p1501
ag1113
ag364
ag843
ag401
ag954
ag261
ag1459
ag280
ag281
ag450
ag663
ag6
aS'NCT04402905'
p1502
aS'NCT04367142'
p1503
ag293
ag631
aS'NCT04364594'
p1504
ag287
aS'NCT04359810'
p1505
ag46
aS'NCT04387955'
p1506
ag1035
aS'NCT04331665'
p1507
aS'NCT04405934'
p1508
ag929
ag1483
ag846
aS'NCT04357327'
p1509
ag582
aS'NCT04307459'
p1510
ag847
aS'NCT04382066'
p1511
atRp1512
sS'inc:substance abuse problem'
p1513
g3
((lp1514
g197
ag200
ag378
ag203
ag1129
ag914
ag189
atRp1515
sS'inc:epilepsy'
p1516
g3
((lp1517
g515
aS'NCT04377425'
p1518
aS'NCT04361344'
p1519
ag72
ag590
ag312
ag344
atRp1520
sS'exc:vasoconstrictor agents'
p1521
g3
((lp1522
g880
ag150
ag7
ag999
ag653
ag1374
ag107
ag536
ag250
ag1027
ag443
ag316
ag473
ag601
ag979
ag1303
ag540
ag1001
ag222
ag22
ag227
ag71
ag1441
ag560
ag268
ag27
aS'NCT04371978'
p1523
ag552
ag181
ag492
aS'NCT04343755'
p1524
ag303
ag281
ag557
ag915
ag243
atRp1525
sS'inc:immunologic deficiency syndromes'
p1526
g3
((lp1527
S'NCT04355351'
p1528
ag588
ag440
ag1387
ag295
ag203
ag296
ag247
ag1129
ag250
ag156
ag149
ag597
ag316
ag516
ag474
ag267
ag816
ag222
ag227
ag1192
ag72
ag268
ag1108
ag277
ag89
ag1145
atRp1529
sS'exc:pneumonia viral'
p1530
g3
((lp1531
g145
ag1397
ag1401
ag447
ag47
ag1098
ag444
ag1400
ag448
ag327
atRp1532
sS'inc:chronic liver disease'
p1533
g3
((lp1534
g149
ag746
ag338
ag290
ag227
ag163
ag72
ag66
ag274
atRp1535
sS'maximum age = 90'
p1536
g3
((lp1537
S'NCT04359121'
p1538
aS'NCT04398472'
p1539
ag1065
aS'NCT04399746'
p1540
ag1098
aS'NCT04354779'
p1541
ag153
ag973
aS'NCT04377165'
p1542
aS'NCT04381286'
p1543
aS'NCT04399603'
p1544
aS'NCT04381351'
p1545
aS'NCT04364984'
p1546
ag1421
ag1438
ag188
ag165
ag166
ag260
ag635
ag227
aS'NCT04377776'
p1547
ag368
ag366
aS'NCT04275947'
p1548
ag1405
ag1402
aS'NCT04337424'
p1549
aS'NCT04366908'
p1550
aS'NCT04355702'
p1551
aS'NCT04344080'
p1552
ag805
aS'NCT04391166'
p1553
ag284
aS'NCT04406181'
p1554
ag1059
ag451
aS'NCT04387929'
p1555
ag190
aS'NCT04400006'
p1556
ag494
atRp1557
sS'maximum age = 95'
p1558
g3
((lp1559
S'NCT04403035'
p1560
ag110
ag1414
aS'NCT04378803'
p1561
ag1081
aS'NCT04406493'
p1562
ag1100
ag849
ag385
aS'NCT04339426'
p1563
atRp1564
sS'maximum age = 99'
p1565
g3
((lp1566
g1447
ag147
aS'NCT04361500'
p1567
ag1163
ag185
ag485
aS'NCT04374786'
p1568
ag534
ag1341
aS'NCT04329533'
p1569
ag835
ag140
aS'NCT04348864'
p1570
ag905
ag1499
ag1409
ag501
ag795
aS'NCT04316949'
p1571
aS'NCT04363099'
p1572
ag308
aS'NCT04330521'
p1573
ag1223
ag570
ag1001
ag1089
aS'NCT04364802'
p1574
ag216
ag800
ag72
ag1041
ag179
ag625
ag1009
ag1427
aS'NCT04312243'
p1575
ag637
ag285
ag242
aS'NCT04379258'
p1576
atRp1577
sS'maximum age = 98'
p1578
g3
((lp1579
S'NCT04406844'
p1580
atRp1581
sS'exc:lung'
p1582
g3
((lp1583
g145
ag1355
ag83
ag9
ag616
ag423
ag728
ag706
ag338
ag632
ag591
ag149
ag1221
ag426
ag62
ag595
ag90
ag161
ag417
ag539
ag165
ag1176
ag668
ag399
ag10
ag1230
ag430
aS'NCT04344587'
p1584
ag572
ag176
ag330
ag551
aS'NCT04377724'
p1585
aS'NCT04384900'
p1586
ag374
ag50
ag1079
ag1428
ag183
ag184
ag642
ag384
ag1232
ag1356
ag737
ag1245
aS'NCT04399681'
p1587
ag196
ag19
ag251
ag82
ag793
ag202
ag992
ag536
ag138
ag566
ag60
ag214
ag597
ag227
ag602
ag979
ag418
ag141
ag1476
ag112
ag219
ag993
ag744
ag222
ag884
ag206
ag841
ag623
ag23
ag637
ag1404
ag228
ag71
ag37
ag16
ag560
ag230
ag573
ag371
aS'NCT04292327'
p1588
ag28
ag29
ag1357
aS'NCT04393155'
p1589
ag609
ag76
ag1002
ag439
ag662
ag752
ag627
ag1191
ag229
ag1084
ag243
ag5
ag603
ag963
ag57
ag508
ag1109
ag250
ag503
aS'NCT04351789'
p1590
ag15
aS'NCT04387240'
p1591
ag502
ag656
ag408
ag361
ag416
ag444
ag669
ag48
ag908
ag954
ag263
ag20
ag49
ag546
ag414
ag1113
ag681
ag978
ag972
aS'NCT04377334'
p1592
ag270
ag909
ag1402
ag1108
ag372
ag855
ag1144
ag448
ag1456
ag281
ag1152
ag378
ag525
ag224
ag33
ag254
ag915
ag721
ag97
ag988
ag331
ag289
ag7
ag1458
ag290
ag965
aS'NCT04368000'
p1593
ag215
ag132
ag533
ag296
ag607
ag24
ag134
ag601
ag1146
ag537
ag768
ag553
ag796
ag473
ag332
ag46
ag1106
ag310
ag1001
aS'NCT04389944'
p1594
aS'NCT04338074'
p1595
ag22
ag316
aS'NCT04346420'
p1596
ag454
ag25
ag605
ag475
ag461
ag773
ag462
ag1075
ag929
ag554
aS'NCT04244591'
p1597
ag463
ag610
ag504
aS'NCT04363372'
p1598
aS'NCT04347915'
p1599
ag1195
ag474
ag507
ag1177
ag382
aS'NCT04382586'
p1600
ag562
atRp1601
sS'exc:liver function'
p1602
g3
((lp1603
g127
ag122
ag7
ag402
ag131
ag73
ag1476
ag130
ag627
ag141
ag119
ag139
ag59
ag133
ag129
ag60
atRp1604
sS'inc:coinfection'
p1605
g3
((lp1606
S'NCT04262921'
p1607
ag260
ag481
ag582
ag231
atRp1608
sS'maximum age = 69'
p1609
g3
((lp1610
g18
atRp1611
sS'inc:chest ct'
p1612
g3
((lp1613
g588
ag1294
ag106
ag869
ag204
ag1449
ag205
ag973
ag1442
ag211
ag46
ag1436
ag1035
aS'NCT04341766'
p1614
ag227
aS'NCT04403607'
p1615
ag71
ag1040
ag1202
ag552
ag323
ag554
ag276
aS'NCT04376814'
p1616
aS'NCT04394026'
p1617
ag1467
ag288
ag1429
aS'NCT04373486'
p1618
ag289
ag243
atRp1619
sS'inc:liver diseases'
p1620
g3
((lp1621
g163
ag290
ag200
ag295
ag203
ag341
ag596
ag394
ag301
ag515
ag149
ag1192
ag338
ag447
ag948
ag309
ag66
ag265
ag746
ag225
ag583
ag227
ag1407
ag171
ag72
ag581
ag274
ag179
ag123
ag333
atRp1622
sS'inc:liver failure'
p1623
g3
((lp1624
g1113
ag266
ag1164
ag246
ag558
ag204
ag177
ag269
atRp1625
sS'exc:pulmonary embolism'
p1626
g3
((lp1627
g145
ag1355
ag454
ag504
ag473
ag161
ag219
ag669
ag408
ag25
ag71
ag978
ag605
ag573
ag29
ag1456
ag463
ag76
ag610
ag62
ag331
ag224
ag1356
ag1177
ag37
ag1357
atRp1628
sS'exc:impaired cognition'
p1629
g3
((lp1630
g351
ag1281
ag727
aS'NCT04407494'
p1631
aS'NCT04331054'
p1632
aS'NCT04346953'
p1633
ag361
ag444
ag909
aS'NCT04399109'
p1634
ag1510
aS'NCT04340219'
p1635
ag26
ag376
aS'NCT04334434'
p1636
ag1166
ag733
ag56
ag448
ag463
ag1380
ag1376
ag36
aS'NCT04346927'
p1637
atRp1638
sS'maximum age = 100'
p1639
g3
((lp1640
g1443
aS'NCT04362150'
p1641
ag105
ag484
aS'NCT04378595'
p1642
aS'NCT04385771'
p1643
ag616
aS'NCT04393961'
p1644
aS'NCT04401644'
p1645
ag298
aS'NCT04365361'
p1646
ag1416
aS'NCT04339686'
p1647
ag391
ag356
ag537
ag860
ag302
ag160
aS'NCT04331470'
p1648
aS'NCT04376398'
p1649
ag1461
ag261
aS'NCT04347694'
p1650
aS'NCT04332016'
p1651
ag264
ag1258
ag1460
aS'NCT04405973'
p1652
aS'NCT04378582'
p1653
ag295
aS'NCT04403009'
p1654
ag330
aS'NCT04344249'
p1655
aS'NCT04303299'
p1656
aS'NCT04372043'
p1657
aS'NCT04311398'
p1658
ag1357
aS'NCT04383483'
p1659
aS'NCT04378244'
p1660
ag912
ag1046
aS'NCT04344444'
p1661
aS'NCT04403061'
p1662
ag1616
ag1449
ag271
aS'NCT04367129'
p1663
ag1082
aS'NCT04324528'
p1664
ag164
ag1049
aS'NCT04395742'
p1665
aS'NCT04368637'
p1666
atRp1667
sS'maximum age = 105'
p1668
g3
((lp1669
g1614
atRp1670
sS'exc:current therapy'
p1671
g3
((lp1672
g30
ag340
ag458
ag1632
ag1455
ag653
ag224
ag287
ag164
ag132
ag270
ag729
ag1487
ag99
ag286
ag986
ag673
ag334
ag107
ag1523
atRp1673
sS'maximum age = 62'
p1674
g3
((lp1675
S'NCT04387838'
p1676
atRp1677
sS'exc:arteriopathic disease'
p1678
g3
((lp1679
g5
ag1041
ag156
ag24
ag685
ag1596
ag572
ag1344
ag296
ag27
ag530
ag672
ag20
ag59
ag636
atRp1680
sS'inc:myalgia'
p1681
g3
((lp1682
g103
ag106
ag54
ag442
ag151
ag296
ag487
ag107
ag109
ag394
ag1146
ag214
ag62
ag436
ag218
ag1436
ag260
ag135
ag113
ag114
ag115
ag178
ag403
ag843
ag95
ag179
ag119
ag1144
ag716
ag122
ag438
ag455
ag432
ag904
ag1429
ag238
atRp1683
sS'inc:body mass index'
p1684
g3
((lp1685
g1487
ag418
ag197
ag81
ag349
ag1245
aS'NCT04397471'
p1686
ag631
ag309
ag534
ag632
ag156
ag170
ag149
ag338
ag597
ag769
ag89
ag474
ag63
ag106
ag416
ag242
ag260
ag167
ag954
ag634
ag20
ag265
aS'NCT04363749'
p1687
ag121
ag970
ag760
ag268
ag937
ag224
ag72
ag175
ag1193
ag909
ag1060
ag426
ag133
ag417
ag414
ag461
aS'NCT04391738'
p1688
ag956
ag1289
ag611
ag97
ag783
ag34
ag656
ag35
ag1307
ag238
ag914
aS'NCT04407585'
p1689
ag1318
atRp1690
sS'maximum age = 64'
p1691
g3
((lp1692
S'NCT04406909'
p1693
aS'NCT04400279'
p1694
ag1585
ag1192
atRp1695
sS'maximum age = 65'
p1696
g3
((lp1697
g145
ag1355
ag7
aS'NCT04377802'
p1698
aS'NCT04323228'
p1699
ag292
ag1066
aS'NCT04388644'
p1700
ag130
ag785
aS'NCT04342208'
p1701
ag1212
ag139
ag355
aS'NCT04342195'
p1702
ag358
ag360
ag395
aS'NCT04392713'
p1703
aS'NCT04408651'
p1704
ag1278
ag633
ag21
aS'NCT04367636'
p1705
aS'NCT04320238'
p1706
ag978
ag1282
ag376
ag404
aS'NCT04351659'
p1707
aS'NCT04388618'
p1708
ag911
ag276
ag448
ag377
aS'NCT04389372'
p1709
aS'NCT02901041'
p1710
ag240
ag507
ag1014
aS'NCT04341688'
p1711
aS'NCT04319315'
p1712
aS'NCT04393077'
p1713
ag1445
aS'NCT04387968'
p1714
atRp1715
sS'maximum age = 60'
p1716
g3
((lp1717
g389
ag1090
aS'NCT04370886'
p1718
aS'NCT04385043'
p1719
ag1146
ag457
aS'NCT04378530'
p1720
ag310
ag1591
ag90
ag1633
ag1344
ag167
ag348
aS'NCT04306055'
p1721
aS'NCT04391881'
p1722
ag384
aS'NCT04375774'
p1723
ag177
aS'NCT04387643'
p1724
ag1144
aS'NCT04347031'
p1725
aS'NCT04387214'
p1726
ag182
aS'NCT04344938'
p1727
aS'NCT04351568'
p1728
ag97
aS'NCT04354792'
p1729
ag810
atRp1730
sS'exc:chloroquine'
p1731
g3
((lp1732
g389
ag648
ag1023
ag603
ag218
aS'NCT04384458'
p1733
aS'NCT04329572'
p1734
ag963
aS'NCT04322123'
p1735
ag441
ag189
ag19
aS'NCT04328467'
p1736
ag56
ag1129
ag1254
ag536
ag13
ag671
ag1341
ag835
ag905
ag140
ag82
ag606
ag597
ag393
ag685
ag63
ag395
ag1500
ag18
aS'NCT04399356'
p1737
ag396
ag838
aS'NCT04408183'
p1738
ag953
ag544
ag673
aS'NCT04381962'
p1739
ag635
ag569
ag267
ag106
ag760
ag152
ag403
ag843
ag175
ag340
aS'NCT04374942'
p1740
ag371
ag551
ag670
ag404
ag545
ag659
ag405
ag111
ag312
ag794
ag121
ag461
aS'NCT04349592'
p1741
aS'NCT04379492'
p1742
ag1269
ag1471
ag660
ag123
ag380
ag1278
ag406
ag407
ag1014
ag155
aS'NCT04358068'
p1743
ag846
ag192
ag409
aS'NCT04357977'
p1744
ag1511
atRp1745
sS'exc:angina unstable'
p1746
g3
((lp1747
g5
ag8
ag9
ag10
ag11
ag12
ag13
ag14
ag15
ag16
ag17
ag19
ag20
ag22
ag25
ag27
ag28
ag29
ag33
ag34
ag35
ag36
ag37
ag38
atRp1748
sS'inc:hemodynamics'
p1749
g3
((lp1750
g497
ag1374
ag510
aS'NCT04382729'
p1751
atRp1752
sS'minimum age = 10'
p1753
g3
((lp1754
g1261
ag864
atRp1755
sS'inc:bleeding tendency'
p1756
g3
((lp1757
g197
ag260
ag474
ag161
ag204
ag219
ag472
atRp1758
sS'exc:transplantation'
p1759
g3
((lp1760
g5
ag1206
ag854
ag1260
ag47
ag250
ag1099
ag204
ag282
ag728
ag107
ag994
aS'NCT04357574'
p1761
ag1451
ag566
ag1343
ag601
ag59
ag1074
ag502
ag538
aS'NCT04389580'
p1762
ag332
ag591
ag1361
ag979
ag1283
ag743
ag137
ag1317
ag881
ag460
ag669
ag713
ag514
ag1593
ag24
ag1584
ag709
ag754
ag224
ag605
ag1282
ag177
ag1175
ag372
ag29
ag855
ag929
ag659
ag554
ag727
ag1185
ag1471
ag609
ag717
ag662
ag856
ag986
ag331
ag77
ag1545
ag186
ag1276
ag507
ag803
ag37
ag230
ag660
ag735
ag809
atRp1763
sS'inc:chronic kidney diseases'
p1764
g3
((lp1765
g176
ag1113
ag218
ag597
ag170
ag106
ag308
ag72
ag309
ag175
ag112
ag296
ag251
ag179
ag225
ag169
ag253
ag1125
atRp1766
sS'minimum age = 45'
p1767
g3
((lp1768
g769
ag569
ag56
ag27
ag660
ag230
ag21
atRp1769
sS'minimum age = 46'
p1770
g3
((lp1771
g63
atRp1772
sS'minimum age = 40'
p1773
g3
((lp1774
S'NCT04389411'
p1775
ag597
ag796
ag1633
ag1362
ag26
ag310
ag379
aS'NCT04407598'
p1776
ag28
ag222
aS'NCT04344665'
p1777
ag118
ag591
ag664
atRp1778
sS'minimum age = 15'
p1779
g3
((lp1780
g251
aS'NCT04358042'
p1781
ag360
aS'NCT04386694'
p1782
ag1460
ag1703
ag1541
ag1648
aS'NCT04357886'
p1783
aS'NCT04371328'
p1784
ag31
atRp1785
sS'exc:hepatitis b virus'
p1786
g3
((lp1787
g5
aS'NCT04374422'
p1788
ag767
aS'NCT04386252'
p1789
ag832
ag12
ag208
ag602
ag1438
ag1270
ag1164
ag743
ag115
aS'NCT04375176'
p1790
aS'NCT04379284'
p1791
ag152
ag1507
ag608
ag237
ag610
ag735
ag97
ag1177
ag189
ag846
ag1445
atRp1792
sS'exc:amiodarone'
p1793
g3
((lp1794
g389
ag218
ag1733
ag1736
ag536
ag140
ag709
ag156
ag977
ag597
ag685
ag1500
ag569
ag540
ag798
ag397
ag49
aS'NCT04374552'
p1795
ag1230
ag501
ag843
ag175
ag803
ag1259
ag659
ag660
ag111
ag1742
ag406
ag611
ag34
ag407
ag809
atRp1796
sS'exc:chronic disease'
p1797
g3
((lp1798
g1114
ag631
ag57
ag1591
ag18
ag92
ag20
ag882
ag384
ag1722
ag1706
ag94
ag401
ag376
ag639
aS'NCT04389554'
p1799
ag154
ag118
ag1185
ag378
ag641
ag98
aS'NCT04335851'
p1800
atRp1801
sS'inc:organ transplantation'
p1802
g3
((lp1803
g461
ag268
ag295
ag816
aS'NCT04407221'
p1804
ag551
ag1342
ag324
ag632
atRp1805
sS'inc:neutropenia'
p1806
g3
((lp1807
g341
atRp1808
sS'inc:amiodarone'
p1809
g3
((lp1810
g176
ag648
ag409
ag490
atRp1811
sS'inc:tomography'
p1812
g3
((lp1813
g806
ag1221
ag275
ag227
ag291
ag760
ag162
ag25
ag310
ag1438
ag287
aS'NCT04346342'
p1814
ag231
ag334
ag107
atRp1815
sS'inc:liver function'
p1816
g3
((lp1817
g1660
ag583
ag9
ag532
ag1129
ag222
aS'NCT04369365'
p1818
ag189
atRp1819
sS'gender = all'
p1820
g3
((lp1821
g84
ag729
aS'NCT04407273'
p1822
aS'NCT04386070'
p1823
ag110
aS'NCT04359836'
p1824
ag1309
ag881
ag169
ag657
ag1230
ag430
ag1706
ag171
ag72
ag175
aS'NCT04393636'
p1825
aS'NCT04361019'
p1826
ag874
aS'NCT04389476'
p1827
aS'NCT04380987'
p1828
aS'NCT04344912'
p1829
ag1392
ag1376
ag1646
aS'NCT04408365'
p1830
aS'NCT04374838'
p1831
ag740
ag56
aS'NCT04386460'
p1832
ag487
ag671
aS'NCT04357275'
p1833
ag1762
aS'NCT04386668'
p1834
aS'NCT04364828'
p1835
ag396
ag839
ag514
aS'NCT04345419'
p1836
ag1142
aS'NCT04401124'
p1837
ag1740
ag1656
ag560
aS'NCT04329546'
p1838
ag235
ag1378
ag574
ag720
ag123
aS'NCT04389294'
p1839
ag242
ag627
ag1166
ag1206
aS'NCT04375761'
p1840
aS'NCT04327479'
p1841
aS'NCT04385108'
p1842
ag1498
ag1301
ag788
aS'NCT04384406'
p1843
ag1562
aS'NCT04338932'
p1844
ag265
ag882
aS'NCT04402970'
p1845
aS'NCT04397939'
p1846
ag1548
ag270
aS'NCT04371848'
p1847
aS'NCT04354701'
p1848
ag372
ag1144
ag715
aS'NCT04401072'
p1849
ag281
aS'NCT04363775'
p1850
ag34
ag915
ag389
aS'NCT04367922'
p1851
aS'NCT04381936'
p1852
ag291
ag292
ag294
ag534
aS'NCT04322513'
p1853
aS'NCT04373135'
p1854
ag876
ag796
aS'NCT04383626'
p1855
aS'NCT04369807'
p1856
aS'NCT04352634'
p1857
ag633
aS'NCT04381845'
p1858
aS'NCT04339608'
p1859
aS'NCT04380714'
p1860
ag1000
ag1141
ag1465
ag554
aS'NCT04392232'
p1861
ag774
aS'NCT04358952'
p1862
ag638
ag806
ag610
ag1449
aS'NCT04341714'
p1863
ag722
ag1413
ag1165
ag1416
ag349
ag591
ag87
ag92
ag1234
ag167
ag1584
ag572
aS'NCT04318418'
p1864
aS'NCT04370678'
p1865
ag952
aS'NCT04407208'
p1866
ag1044
ag1055
aS'NCT04256395'
p1867
ag13
ag1189
ag992
ag204
aS'NCT04389463'
p1868
ag1543
ag109
aS'NCT04304690'
p1869
aS'NCT04360538'
p1870
ag597
ag602
aS'NCT04407286'
p1871
aS'NCT04361396'
p1872
ag1476
ag219
ag745
ag1499
aS'NCT04388436'
p1873
ag400
ag491
ag1258
ag747
ag624
aS'NCT04331106'
p1874
ag1589
ag609
ag237
aS'NCT04330690'
p1875
aS'NCT04357041'
p1876
aS'NCT04407429'
p1877
ag243
aS'NCT04345406'
p1878
ag259
aS'NCT04363385'
p1879
ag350
aS'NCT04401111'
p1880
ag1686
ag1024
ag927
aS'NCT04363541'
p1881
ag508
ag249
ag140
aS'NCT04329559'
p1882
ag1702
aS'NCT04346186'
p1883
aS'NCT04365725'
p1884
ag360
ag1573
ag1453
aS'NCT04408287'
p1885
ag1795
ag1257
ag1721
ag590
aS'NCT03716869'
p1886
ag1568
ag1572
ag1322
ag30
ag1524
ag735
ag741
ag378
aS'NCT04384419'
p1887
ag663
aS'NCT04353284'
p1888
aS'NCT04408157'
p1889
ag988
ag1285
aS'NCT04349982'
p1890
ag1502
ag1326
ag654
ag1068
ag631
ag298
ag299
ag858
ag1174
aS'NCT04347824'
p1891
ag969
ag305
ag306
aS'NCT04371692'
p1892
aS'NCT04338672'
p1893
aS'NCT04331509'
p1894
ag770
ag510
ag1595
aS'NCT04387292'
p1895
aS'NCT04393805'
p1896
aS'NCT04407195'
p1897
ag919
ag322
aS'NCT04337502'
p1898
ag784
aS'NCT04383613'
p1899
aS'NCT04353583'
p1900
ag1599
ag1195
ag803
ag145
aS'NCT04359459'
p1901
ag81
aS'NCT04377685'
p1902
ag1397
ag423
aS'NCT04355754'
p1903
aS'NCT04322344'
p1904
ag159
ag149
ag426
ag1693
aS'NCT04360850'
p1905
aS'NCT04382495'
p1906
ag1700
aS'NCT04370249'
p1907
ag65
aS'NCT04393974'
p1908
aS'NCT04318314'
p1909
ag589
aS'NCT04393818'
p1910
ag476
aS'NCT04393415'
p1911
ag1244
aS'NCT04387279'
p1912
ag643
aS'NCT04370808'
p1913
ag1014
ag190
ag1712
ag792
ag203
ag355
ag210
aS'NCT04377464'
p1914
ag213
ag1494
ag884
ag1101
ag402
ag583
ag71
ag1727
ag1655
ag28
ag552
ag555
ag749
ag1261
aS'NCT04370067'
p1915
aS'NCT04407507'
p1916
aS'NCT04396210'
p1917
aS'NCT04320862'
p1918
aS'NCT04329897'
p1919
aS'NCT04377815'
p1920
ag1637
aS'NCT04327674'
p1921
ag481
ag440
ag1814
ag485
ag535
ag588
ag708
ag443
ag1102
aS'NCT04370119'
p1922
ag502
aS'NCT04380896'
p1923
ag954
ag635
aS'NCT04394793'
p1924
ag273
ag1185
ag449
aS'NCT04335019'
p1925
aS'NCT04302766'
p1926
ag834
ag1145
aS'NCT04368065'
p1927
aS'NCT04378881'
p1928
ag1212
aS'NCT04375748'
p1929
ag1341
ag531
ag532
aS'NCT04385121'
p1930
ag455
ag1374
ag287
ag473
ag332
aS'NCT04346082'
p1931
aS'NCT04356443'
p1932
ag363
ag1036
aS'NCT04373759'
p1933
ag1440
ag321
aS'NCT04351529'
p1934
ag111
aS'NCT04347850'
p1935
aS'NCT04349202'
p1936
ag1598
ag1505
ag1445
ag1714
ag849
ag104
aS'NCT04358029'
p1937
ag151
ag728
aS'NCT04351295'
p1938
ag425
ag1342
ag779
ag1482
ag427
ag444
aS'NCT04359602'
p1939
ag492
ag255
ag1653
ag550
ag177
aS'NCT04355741'
p1940
ag374
ag1634
aS'NCT04367896'
p1941
ag377
aS'NCT04348552'
p1942
ag1332
ag971
ag1356
ag1430
aS'NCT04352764'
p1943
ag197
aS'NCT04370275'
p1944
ag1021
aS'NCT04377581'
p1945
ag1644
ag707
aS'NCT04362358'
p1946
aS'NCT04359992'
p1947
ag233
aS'NCT04386395'
p1948
aS'NCT04365816'
p1949
ag1200
aS'NCT04378452'
p1950
ag220
ag222
ag509
aS'NCT04368390'
p1951
ag1804
ag27
aS'NCT04344327'
p1952
aS'NCT04394884'
p1953
ag1442
ag625
ag787
ag275
aS'NCT04360733'
p1954
ag1711
ag880
aS'NCT04357938'
p1955
aS'NCT04382040'
p1956
aS'NCT04357847'
p1957
ag252
aS'NCT04357418'
p1958
aS'NCT04365881'
p1959
ag758
aS'NCT04407533'
p1960
ag257
ag1580
aS'NCT04368299'
p1961
ag1454
ag1650
ag66
ag953
ag20
ag713
aS'NCT04351854'
p1962
aS'NCT04321993'
p1963
aS'NCT04404192'
p1964
ag1085
ag274
ag277
ag1456
aS'NCT04387708'
p1965
ag285
ag33
aS'NCT04366934'
p1966
aS'NCT04368676'
p1967
aS'NCT04348305'
p1968
aS'NCT04374110'
p1969
ag290
ag1113
ag297
ag1117
ag606
aS'NCT04385251'
p1970
ag308
ag1493
ag310
aS'NCT04324489'
p1971
ag1687
ag22
ag36
ag317
aS'NCT04345510'
p1972
ag567
ag1193
ag323
ag327
ag463
ag1097
ag921
ag822
aS'NCT04404179'
p1973
ag1555
ag1467
ag1510
ag1049
aS'NCT04378842'
p1974
ag1528
aS'NCT04376996'
p1975
ag1414
ag1736
aS'NCT04375644'
p1976
ag1254
ag390
ag905
ag1277
ag1421
ag1270
ag1275
ag428
aS'NCT04379154'
p1977
aS'NCT04373109'
p1978
ag367
ag174
ag731
ag604
aS'NCT04348942'
p1979
ag845
ag50
aS'NCT04390555'
p1980
aS'NCT04339634'
p1981
ag432
aS'NCT04367714'
p1982
ag1429
ag1665
ag195
aS'NCT04380766'
p1983
ag1789
ag1698
ag1642
aS'NCT04367064'
p1984
aS'NCT04392973'
p1985
aS'NCT04376515'
p1986
aS'NCT04367883'
p1987
aS'NCT04360876'
p1988
ag993
aS'NCT04367402'
p1989
aS'NCT04362163'
p1990
ag1739
ag225
ag1404
ag228
ag1652
ag802
ag371
aS'NCT04352517'
p1991
ag234
ag1710
ag240
aS'NCT04387253'
p1992
ag783
ag1366
aS'NCT04367662'
p1993
ag712
ag1084
aS'NCT04384042'
p1994
aS'NCT04341142'
p1995
aS'NCT04319445'
p1996
ag1173
ag832
ag1641
ag823
ag1751
ag258
ag395
ag1066
ag760
ag682
aS'NCT04321616'
p1997
aS'NCT04334252'
p1998
aS'NCT04357106'
p1999
ag448
ag312
ag805
ag556
ag1046
ag557
ag525
ag721
ag1178
ag248
ag615
ag653
ag1136
ag596
ag601
ag1597
aS'NCT04333953'
p2000
aS'NCT04347993'
p2001
aS'NCT04372030'
p2002
ag311
ag859
ag1594
ag772
ag547
ag1596
ag369
ag549
ag1464
ag95
ag1694
aS'NCT04320017'
p2003
aS'NCT04405362'
p2004
ag659
aS'NCT04379232'
p2005
ag329
ag77
aS'NCT04375501'
p2006
ag1509
aS'NCT04397510'
p2007
aS'NCT04328129'
p2008
ag1083
ag146
ag1213
ag1294
ag524
ag1310
ag816
ag394
aS'NCT04351646'
p2009
ag538
aS'NCT04394429'
p2010
ag162
ag163
ag1038
aS'NCT04373824'
p2011
ag764
ag1337
aS'NCT04388410'
p2012
ag116
ag173
ag26
aS'NCT04384705'
p2013
aS'NCT04351503'
p2014
ag404
ag1425
ag1079
aS'NCT04361916'
p2015
ag642
aS'NCT04376853'
p2016
aS'NCT04393233'
p2017
ag1587
ag854
aS'NCT04377100'
p2018
ag793
aS'NCT04403880'
p2019
aS'NCT04370197'
p2020
aS'NCT04355507'
p2021
ag835
ag742
ag435
ag217
ag63
ag18
ag1436
ag559
ag221
ag623
ag1089
ag93
aS'NCT04355767'
p2022
aS'NCT04377074'
p2023
aS'NCT04367870'
p2024
ag1549
aS'NCT04373005'
p2025
ag1045
aS'NCT04352699'
p2026
ag1659
ag1059
aS'NCT04284046'
p2027
ag1618
ag753
ag637
ag442
ag994
aS'NCT04382846'
p2028
ag1591
ag361
ag1231
ag1726
ag541
ag262
ag909
ag113
aS'NCT04407117'
p2029
aS'NCT04285801'
p2030
aS'NCT04377490'
p2031
ag840
aS'NCT04361591'
p2032
aS'NCT04368871'
p2033
ag1550
aS'NCT04362930'
p2034
ag1662
ag450
aS'NCT04336332'
p2035
ag928
aS'NCT04369690'
p2036
ag644
aS'NCT04344015'
p2037
ag7
ag484
ag973
aS'NCT04407559'
p2038
ag1387
ag356
ag208
aS'NCT04404608'
p2039
aS'NCT04344782'
p2040
ag1546
ag553
ag769
ag1307
ag64
aS'NCT04386759'
p2041
aS'NCT04382196'
p2042
aS'NCT04347070'
p2043
ag1290
ag366
ag340
ag856
ag326
ag1313
aS'NCT04353011'
p2044
aS'NCT04356534'
p2045
ag575
ag1511
ag616
ag1090
ag727
ag1645
ag353
aS'NCT04353336'
p2046
ag1419
ag1676
ag1207
aS'NCT04350476'
p2047
ag1471
ag505
aS'NCT04401241'
p2048
aS'NCT04348214'
p2049
aS'NCT04408339'
p2050
aS'NCT04345536'
p2051
aS'NCT04405232'
p2052
ag1140
ag551
aS'NCT04343794'
p2053
ag964
ag1733
ag1707
ag1586
ag280
ag405
aS'NCT04320732'
p2054
ag1380
ag1428
ag183
ag719
ag1709
aS'NCT04408196'
p2055
ag424
aS'NCT04296643'
p2056
aS'NCT04394169'
p2057
ag1256
ag198
ag739
ag202
aS'NCT04354753'
p2058
aS'NCT04335279'
p2059
ag536
ag1701
ag354
ag566
ag1246
ag60
aS'NCT04391101'
p2060
ag436
ag1437
ag595
ag69
ag1107
ag873
ag1175
aS'NCT04345640'
p2061
aS'NCT04345315'
p2062
ag762
ag807
ag241
aS'NCT04334876'
p2063
aS'NCT04339322'
p2064
ag409
ag127
aS'NCT04373382'
p2065
ag1422
ag1211
aS'NCT04378738'
p2066
ag59
ag253
ag684
ag908
ag49
ag681
ag364
ag937
ag948
ag271
ag272
aS'NCT04322279'
p2067
aS'NCT04337320'
p2068
ag278
aS'NCT04383587'
p2069
ag1302
aS'NCT04366024'
p2070
aS'NCT04384029'
p2071
aS'NCT04366154'
p2072
ag1777
ag483
aS'NCT04357639'
p2073
aS'NCT04318444'
p2074
ag296
ag1343
ag1069
aS'NCT04324736'
p2075
ag88
ag304
ag619
ag309
ag1225
ag570
aS'NCT04357834'
p2076
aS'NCT04341012'
p2077
aS'NCT04383457'
p2078
ag1775
aS'NCT04365595'
p2079
ag25
aS'NCT04343898'
p2080
ag461
ag1724
ag929
ag324
ag328
ag717
ag641
ag1081
aS'NCT04347460'
p2081
ag334
aS'NCT04331171'
p2082
aS'NCT04342884'
p2083
ag1019
aS'NCT04389567'
p2084
aS'NCT04385862'
p2085
aS'NCT04368312'
p2086
ag137
aS'NCT04347798'
p2087
aS'NCT04297904'
p2088
aS'NCT04357496'
p2089
ag403
ag182
aS'NCT04353323'
p2090
ag956
ag1481
ag1308
ag186
aS'NCT04401254'
p2091
aS'NCT04348227'
p2092
ag1431
aS'NCT04374656'
p2093
aS'NCT04375098'
p2094
ag1281
ag655
ag205
aS'NCT04395976'
p2095
ag736
aS'NCT04321928'
p2096
aS'NCT04400812'
p2097
ag516
aS'NCT04379544'
p2098
ag892
ag539
ag342
ag841
ag746
aS'NCT04328493'
p2099
ag226
ag1039
ag605
ag573
aS'NCT04339790'
p2100
ag1222
ag75
ag438
ag439
aS'NCT04363333'
p2101
aS'NCT04375709'
p2102
ag1226
ag1050
ag1051
aS'NCT04359797'
p2103
ag112
ag1020
aS'NCT04395391'
p2104
aS'NCT04360954'
p2105
ag247
aS'NCT04345679'
p2106
ag1004
ag756
ag503
aS'NCT04398043'
p2107
ag1391
ag620
aS'NCT04406090'
p2108
ag621
ag571
ag1034
aS'NCT04355143'
p2109
aS'NCT04367857'
p2110
ag855
ag1708
ag716
ag264
ag180
aS'NCT04383730'
p2111
ag284
aS'NCT04350099'
p2112
ag288
ag37
aS'NCT04362319'
p2113
ag767
aS'NCT04361448'
p2114
ag1503
ag486
aS'NCT04376658'
p2115
ag300
aS'NCT04260308'
p2116
ag209
aS'NCT04349163'
p2117
aS'NCT04348422'
p2118
aS'NCT04407169'
p2119
ag507
ag799
ag970
ag70
ag319
ag118
aS'NCT04362267'
p2120
aS'NCT04281693'
p2121
ag661
aS'NCT04144231'
p2122
ag1284
aS'NCT04382469'
p2123
ag83
ag1355
aS'NCT04344210'
p2124
ag1026
aS'NCT04392115'
p2125
aS'NCT04193020'
p2126
aS'NCT04373213'
p2127
aS'NCT04362865'
p2128
ag160
ag166
ag1164
aS'NCT04368234'
p2129
ag170
ag1432
ag330
ag1761
aS'NCT04397237'
p2130
ag734
ag611
ag1383
ag1082
aS'NCT04337008'
p2131
ag1744
ag251
ag1590
ag54
aS'NCT04371419'
p2132
aS'NCT04346121'
p2133
ag786
ag138
ag864
aS'NCT04389996'
p2134
aS'NCT04385212'
p2135
aS'NCT04397523'
p2136
ag1312
ag1776
aS'NCT04390165'
p2137
ag910
aS'NCT04408066'
p2138
aS'NCT04397705'
p2139
aS'NCT04342689'
p2140
aS'NCT04363788'
p2141
ag883
ag658
aS'NCT04384926'
p2142
aS'NCT04361877'
p2143
ag795
aS'NCT04337918'
p2144
aS'NCT04324190'
p2145
ag406
ag35
aS'NCT04379375'
p2146
ag38
ag980
ag5
ag1134
aS'NCT04338945'
p2147
aS'NCT04371562'
p2148
ag1541
aS'NCT04327570'
p2149
aS'NCT04330599'
p2150
ag836
aS'NCT04390477'
p2151
ag757
aS'NCT04402892'
p2152
aS'NCT04385069'
p2153
ag1351
ag260
ag782
aS'NCT04373148'
p2154
ag639
aS'NCT04390516'
p2155
aS'NCT04406571'
p2156
ag1783
ag912
ag1047
ag283
ag191
aS'NCT04367207'
p2157
ag781
ag561
ag453
ag677
ag1496
ag351
aS'NCT04344834'
p2158
ag1099
ag1027
ag301
aS'NCT04326114'
p2159
ag302
ag497
ag1729
ag1077
ag1649
ag1278
ag798
aS'NCT04367337'
p2160
ag314
ag771
aS'NCT04350086'
p2161
ag42
ag1614
ag23
aS'NCT04403906'
p2162
ag888
aS'NCT04333693'
p2163
ag587
ag464
aS'NCT04348435'
p2164
aS'NCT04382508'
p2165
ag562
aS'NCT04369794'
p2166
ag506
ag148
ag1657
ag1398
aS'NCT04344197'
p2167
ag1661
aS'NCT04363229'
p2168
ag1718
ag58
aS'NCT04377607'
p2169
aS'NCT04369066'
p2170
ag91
aS'NCT04370938'
p2171
aS'NCT04365972'
p2172
ag984
aS'NCT04336774'
p2173
ag1061
aS'NCT04334291'
p2174
aS'NCT04380909'
p2175
aS'NCT04347538'
p2176
ag1635
ag172
ag846
aS'NCT04356365'
p2177
ag1260
ag1009
ag804
ag1741
ag1194
ag246
aS'NCT04359927'
p2178
ag900
ag1800
aS'NCT04361786'
p2179
aS'NCT04335188'
p2180
aS'NCT04330352'
p2181
ag581
ag1664
ag1129
aS'NCT04344535'
p2182
ag488
ag1435
aS'NCT04319731'
p2183
ag1028
ag709
aS'NCT04382092'
p2184
ag397
aS'NCT04407299'
p2185
ag998
ag380
ag231
ag1259
ag1438
ag493
aS'NCT04374097'
p2186
aS'NCT04333862'
p2187
ag1147
ag1689
ag1114
ag1013
ag244
ag920
ag57
ag250
aS'NCT04343053'
p2188
ag1545
ag977
aS'NCT04389320'
p2189
ag263
ag343
ag759
ag1407
ag1704
aS'NCT04396600'
p2190
ag1041
ag136
aS'NCT04371354'
p2191
ag1125
aS'NCT04390269'
p2192
ag1152
ag1616
ag1135
aS'NCT04092478'
p2193
ag452
ag664
ag1408
ag1713
aS'NCT04358640'
p2194
aS'NCT04399005'
p2195
ag295
ag132
ag282
ag107
ag1647
aS'NCT04259892'
p2196
ag820
ag474
aS'NCT04363008'
p2197
ag1106
aS'NCT04394390'
p2198
ag45
ag814
ag1472
ag1138
aS'NCT04377035'
p2199
ag1615
ag224
ag475
ag73
ag1688
ag775
ag1554
ag1402
ag582
ag1100
ag830
ag8
ag490
ag9
ag1585
ag1399
aS'NCT04339998'
p2200
ag632
aS'NCT04373460'
p2201
aS'NCT04348409'
p2202
ag161
ag1423
ag165
aS'NCT04352491'
p2203
ag543
ag1033
ag668
ag10
aS'NCT04366947'
p2204
aS'NCT04386083'
p2205
ag842
aS'NCT04344184'
p2206
ag1426
aS'NCT04388813'
p2207
ag718
aS'NCT04391816'
p2208
ag184
aS'NCT04346966'
p2209
ag193
ag385
ag652
ag200
ag1245
ag1233
ag12
ag139
ag1217
aS'NCT04356378'
p2210
ag391
aS'NCT04377503'
p2211
aS'NCT04368923'
p2212
ag1029
aS'NCT04337151'
p2213
aS'NCT04359914'
p2214
ag872
ag1317
aS'NCT04346810'
p2215
aS'NCT04366167'
p2216
aS'NCT04346212'
p2217
ag227
aS'NCT04361123'
p2218
ag1280
aS'NCT04343339'
p2219
aS'NCT04385836'
p2220
ag131
aS'NCT04396314'
p2221
ag496
ag1556
ag99
ag1446
aS'NCT04292340'
p2222
aS'NCT04332107'
p2223
aS'NCT04400734'
p2224
aS'NCT04390074'
p2225
ag821
ag1109
ag1451
aS'NCT04385940'
p2226
aS'NCT04333875'
p2227
ag16
ag393
ag1703
ag269
aS'NCT04389684'
p2228
aS'NCT04397380'
p2229
ag526
ag696
ag266
ag1279
ag447
ag801
ag1202
ag1076
ag154
ag279
ag815
ag765
ag1457
ag1048
ag723
ag1318
ag1497
ag1539
ag1458
ag1163
aS'NCT04408131'
p2230
aS'NCT04397614'
p2231
ag1444
aS'NCT04398277'
p2232
ag1719
aS'NCT04363671'
p2233
ag985
ag89
ag46
ag1345
aS'NCT04394013'
p2234
ag797
ag537
ag1462
ag318
aS'NCT04402853'
p2235
ag477
ag462
ag640
aS'NCT04402983'
p2236
aS'NCT04338100'
p2237
aS'NCT04355338'
p2238
ag307
ag1362
ag1538
ag459
aS'NCT04381819'
p2239
ag515
aS'NCT04378777'
p2240
aS'NCT04367792'
p2241
aS'NCT04355442'
p2242
aS'NCT04372056'
p2243
ag156
aS'NCT03827057'
p2244
ag1452
ag860
ag128
ag868
ag62
aS'NCT04371835'
p2245
ag429
ag24
ag339
ag325
ag176
ag672
ag517
aS'NCT04321811'
p2246
ag431
ag617
ag1080
ag1240
ag199
aS'NCT04405869'
p2247
ag1434
ag211
ag1560
ag683
ag1633
aS'NCT04382417'
p2248
aS'NCT04392245'
p2249
ag1418
ag1439
ag1636
aS'NCT04314817'
p2250
ag29
ag373
ag1552
ag913
ag256
ag809
ag1447
ag1417
ag47
ag1344
aS'NCT04331886'
p2251
ag1255
aS'NCT04356586'
p2252
ag1373
ag1190
ag15
aS'NCT04348396'
p2253
ag1658
aS'NCT04368351'
p2254
ag669
ag544
aS'NCT04342104'
p2255
aS'NCT04354805'
p2256
ag978
aS'NCT04335097'
p2257
aS'NCT04386551'
p2258
aS'NCT04278963'
p2259
ag1148
aS'NCT04357431'
p2260
ag763
ag1382
aS'NCT04365530'
p2261
ag494
ag410
aS'NCT04342702'
p2262
ag710
ag293
ag1593
ag1504
aS'NCT04389658'
p2263
ag1073
aS'NCT04363489'
p2264
ag392
ag768
aS'NCT04373889'
p2265
ag1506
ag1461
aS'NCT04374474'
p2266
ag315
ag316
ag61
aS'NCT04394195'
p2267
aS'NCT04383899'
p2268
ag711
aS'NCT04283825'
p2269
ag331
aS'NCT04394000'
p2270
ag1177
ag382
ag904
aS'NCT04404270'
p2271
ag465
ag150
ag147
aS'NCT04375124'
p2272
ag999
ag1269
ag157
ag906
aS'NCT04385147'
p2273
ag1563
ag607
ag1223
ag685
ag838
aS'NCT04358536'
p2274
aS'NCT04376580'
p2275
aS'NCT04322487'
p2276
ag1040
ag1060
ag911
ag714
aS'NCT04351347'
p2277
aS'NCT04406233'
p2278
aS'NCT04367363'
p2279
ag808
ag495
aS'NCT04395664'
p2280
aS'NCT04403828'
p2281
ag196
ag1544
ag1737
ag504
ag1199
aS'NCT04392388'
p2282
ag875
ag673
aS'NCT04347941'
p2283
ag223
ag68
ag229
aS'NCT04362995'
p2284
ag1405
ag1654
aS'NCT04403555'
p2285
ag437
aS'NCT04349631'
p2286
ag32
ag576
aS'NCT04352582'
p2287
ag857
aS'NCT04365985'
p2288
ag441
ag754
ag1333
ag896
ag482
ag344
ag853
ag1377
ag1153
ag871
ag1283
ag540
ag1403
ag1192
ag761
aS'NCT04385810'
p2289
ag1130
ag750
ag383
ag74
ag1459
ag1176
ag848
ag1002
ag1276
aS'NCT04337047'
p2290
aS'NCT04349410'
p2291
ag289
ag1588
aS'NCT04401371'
p2292
aS'NCT04330300'
p2293
aS'NCT04346160'
p2294
aS'NCT04364698'
p2295
aS'NCT04337996'
p2296
aS'NCT04387890'
p2297
ag458
ag1571
ag545
ag1818
ag1035
ag1037
aS'NCT04374513'
p2298
ag216
ag568
aS'NCT04384965'
p2299
aS'NCT04366765'
p2300
ag1648
ag1118
ag530
ag1274
aS'NCT04389645'
p2301
ag376
ag986
ag1289
ag1361
aS'NCT04280913'
p2302
ag847
aS'NCT04374461'
p2303
aS'NCT04378829'
p2304
ag1401
ag1238
aS'NCT04361981'
p2305
aS'NCT04395859'
p2306
ag1025
ag1074
ag1303
ag158
ag689
ag501
ag1221
aS'NCT04353531'
p2307
aS'NCT04381013'
p2308
aS'NCT04283838'
p2309
aS'NCT04352842'
p2310
aS'NCT01306084'
p2311
aS'NCT04379245'
p2312
ag923
ag698
ag399
ag1477
ag117
ag370
ag1466
aS'NCT04385797'
p2313
ag155
ag1331
ag114
ag1491
ag187
ag407
aS'NCT04372693'
p2314
aS'NCT04379063'
p2315
ag286
ag192
aS'NCT04394104'
p2316
ag359
ag43
ag254
ag1065
ag1735
ag1098
ag11
ag214
ag86
ag569
aS'NCT04359212'
p2317
aS'NCT04379661'
p2318
ag115
ag1460
ag1547
aS'NCT04325867'
p2319
ag1495
aS'NCT04392869'
p2320
aS'NCT04337541'
p2321
ag608
ag236
ag121
ag580
ag238
ag1381
aS'NCT04345159'
p2322
aS'NCT04347954'
p2323
aS'NCT04383652'
p2324
ag1643
ag810
aS'NCT04314232'
p2325
aS'NCT04341922'
p2326
aS'NCT04114110'
p2327
ag1567
ag1023
ag1450
ag232
aS'NCT04331574'
p2328
ag702
aS'NCT04376775'
p2329
ag1720
ag1409
ag548
ag1224
ag656
ag489
ag603
aS'NCT04373096'
p2330
aS'NCT04344236'
p2331
aS'NCT04351399'
p2332
ag1003
ag19
ag348
ag1455
ag730
ag1519
ag1108
ag1078
ag660
ag626
ag1067
ag446
ag55
ag1631
ag456
ag108
aS'NCT04355871'
p2333
ag1139
ag303
ag1518
aS'NCT04407468'
p2334
ag1574
aS'NCT04316884'
p2335
ag454
ag94
ag320
ag1507
ag1406
ag96
aS'NCT04381273'
p2336
aS'NCT04374643'
p2337
ag1005
aS'NCT04344977'
p2338
ag987
aS'NCT04353154'
p2339
aS'NCT04369378'
p2340
ag1607
aS'NCT04396197'
p2341
ag1424
ag194
aS'NCT04368026'
p2342
aS'NCT04363268'
p2343
aS'NCT04351802'
p2344
aS'NCT04400305'
p2345
ag706
ag1311
ag14
ag618
ag979
ag1420
aS'NCT04305574'
p2346
ag1375
ag67
ag636
ag215
ag800
ag1031
ag1327
ag1282
ag268
ag379
ag1042
ag179
ag733
ag1415
ag181
ag955
ag1742
ag780
ag44
ag1617
aS'NCT04401098'
p2347
ag189
ag737
ag1576
ag738
ag914
ag558
ag103
ag785
ag1699
ag1433
ag434
ag1570
aS'NCT04363047'
p2348
ag1146
ag1116
ag542
ag936
ag907
aS'NCT04385160'
p2349
ag833
ag965
aS'NCT04358510'
p2350
ag218
ag1393
ag743
ag922
ag622
ag634
aS'NCT04394442'
p2351
aS'NCT04393324'
p2352
ag206
ag1743
aS'NCT04388670'
p2353
aS'NCT04402229'
p2354
ag1441
ag230
ag119
aS'NCT04354272'
p2355
aS'NCT04373798'
p2356
ag76
ag751
ag135
ag1728
ag752
ag1347
aS'NCT04395885'
p2357
ag1487
ag1018
aS'NCT04377763'
p2358
ag963
aS'NCT04397822'
p2359
ag1542
ag1143
ag408
ag1500
aS'NCT04339881'
p2360
aS'NCT04351490'
p2361
ag831
ag445
ag546
ag178
ag1738
ag267
ag1705
ag472
ag1551
ag276
ag120
ag122
aS'NCT04325412'
p2362
ag207
ag97
ag1663
aS'NCT04361422'
p2363
ag1357
ag1239
ag844
ag106
ag1022
ag533
ag164
ag794
aS'NCT04318366'
p2364
ag358
aS'NCT04377789'
p2365
ag1030
ag17
aS'NCT04340466'
p2366
aS'NCT04274322'
p2367
ag460
ag313
ag1379
ag1075
aS'NCT04407260'
p2368
aS'NCT04327804'
p2369
ag648
ag732
ag869
ag153
aS'NCT04404062'
p2370
aS'NCT04336215'
p2371
aS'NCT04385901'
p2372
ag837
ag1784
aS'NCT04344964'
p2373
ag90
ag168
ag398
ag1463
ag670
ag1725
ag1427
ag341
ag1782
ag188
aS'NCT04368143'
p2374
ag433
ag1666
ag1561
ag105
ag201
ag185
ag1268
aS'NCT04371302'
p2375
aS'NCT04354519'
p2376
aS'NCT04385004'
p2377
aS'NCT04395872'
p2378
aS'NCT04401423'
p2379
ag1734
ag212
ag1492
ag1632
ag870
ag130
ag141
ag134
ag744
aS'NCT04323787'
p2380
ag748
aS'NCT04379440'
p2381
ag1723
aS'NCT04345887'
p2382
ag245
aS'NCT04401046'
p2383
aS'NCT04341506'
p2384
ag766
ag1575
ag662
aS'NCT04351633'
p2385
ag129
aS'NCT04352959'
p2386
aS'NCT04274621'
p2387
aS'NCT04339387'
p2388
ag1540
ag1448
ag352
aS'NCT04399967'
p2389
ag755
ag1400
ag338
ag1781
aS'NCT04367350'
p2390
aS'NCT04359264'
p2391
ag1553
ag48
aS'NCT04397848'
p2392
ag1651
ag1501
ag1790
aS'NCT04308187'
p2393
ag972
ag401
ag697
ag261
aS'NCT04358380'
p2394
ag947
ag1346
ag31
ag1232
ag451
aS'NCT04353609'
p2395
ag98
aS'NCT04344145'
p2396
ag6
aS'NCT04370821'
p2397
aS'NCT04344171'
p2398
ag1592
ag133
ag457
aS'NCT04326309'
p2399
ag1201
ag1001
aS'NCT04255940'
p2400
aS'NCT04366882'
p2401
ag1722
ag368
ag1443
ag1523
ag1508
ag1115
aS'NCT04361565'
p2402
ag1483
ag1660
aS'NCT04391400'
p2403
aS'NCT04340479'
p2404
aS'NCT04383444'
p2405
ag1600
ag333
ag152
atRp2406
sS'exc:myalgia'
p2407
g3
((lp2408
g815
ag970
ag62
ag540
ag283
ag816
ag582
ag27
ag797
ag590
ag374
ag914
atRp2409
sS'exc:decreased translucency'
p2410
g3
((lp2411
g281
ag1152
ag1598
ag737
ag1176
ag289
atRp2412
sS'exc:brain'
p2413
g3
((lp2414
g5
ag251
ag1593
ag831
ag616
ag533
ag508
ag2378
ag548
ag503
ag59
ag208
ag538
ag568
ag1518
ag140
ag361
ag349
ag1003
ag167
ag571
ag2266
ag2283
ag2299
ag367
ag384
ag73
ag371
ag29
ag154
ag374
ag30
ag1519
ag717
ag1458
ag37
ag410
atRp2415
sS'exc:glucose-6-phosphate'
p2416
g3
((lp2417
g1487
ag6
ag218
ag1211
ag441
ag2074
ag282
ag1248
ag905
ag140
ag1409
ag393
ag90
ag1106
ag1303
ag604
ag685
ag49
ag400
ag1113
ag93
ag380
ag368
ag846
ag232
ag964
ag660
ag1009
ag493
ag1742
ag1985
ag131
ag1302
ag407
ag1743
ag192
atRp2418
sS'inc:respiratory distress syndrome'
p2419
g3
((lp2420
g127
ag615
ag294
ag616
ag203
ag204
ag282
ag205
ag617
ag211
ag537
ag159
ag303
ag619
ag620
ag621
ag622
ag623
ag532
ag624
ag462
ag625
ag278
ag626
ag627
ag286
ag334
atRp2421
sS'exc:respiration disorders'
p2422
g3
((lp2423
g454
ag351
ag992
ag534
ag57
ag338
ag796
ag89
ag90
ag408
ag539
ag993
ag669
ag1191
ag1596
ag605
ag462
ag29
ag554
ag640
ag463
ag912
ag1966
ag641
ag37
ag1084
atRp2424
sS'inc:intubation'
p2425
g3
((lp2426
g785
ag615
ag293
ag133
ag1850
ag973
ag250
ag109
ag979
ag537
ag504
ag217
ag1375
ag1423
ag1500
ag587
ag22
ag227
ag1441
ag172
ag174
ag731
ag552
ag1586
ag805
ag1381
ag1782
ag123
ag2164
ag1082
ag334
atRp2427
sS'inc:anticoagulants'
p2428
g3
((lp2429
g947
ag62
ag161
ag219
ag189
ag472
atRp2430
sS'exc:hepatic impairment'
p2431
g3
((lp2432
g398
ag1355
ag978
ag574
ag760
ag395
ag18
ag1471
ag595
ag814
ag106
ag1495
ag1743
ag140
ag576
ag1431
ag2109
ag794
atRp2433
sS'exc:heart diseases'
p2434
g3
((lp2435
g103
ag503
ag106
ag1099
ag296
ag834
ag353
ag32
ag155
ag354
ag59
ag591
ag566
ag977
ag1591
ag88
ag426
ag683
ag12
ag392
ag91
ag979
ag219
ag570
ag355
ag954
ag36
ag399
ag635
ag21
ag978
ag397
ag403
ag384
ag117
ag843
ag1248
ag338
ag1743
ag672
ag1459
ag141
ag1862
ag2286
ag57
ag31
ag380
ag507
ag508
ag382
ag904
ag980
ag1511
atRp2436
sS'exc:lung diseases'
p2437
g3
((lp2438
g1587
ag5
ag7
ag82
ag963
ag83
ag9
ag10
ag1136
ag296
ag1588
ag138
ag681
ag1146
ag553
ag601
ag794
ag254
ag15
ag149
ag16
ag338
ag597
ag796
ag602
ag90
ag474
ag979
ag1106
ag165
ag24
ag744
ag1001
ag48
ag954
ag263
ag20
ag399
ag206
ag22
ag384
ag1230
ag637
ag65
ag1596
ag572
ag25
ag549
ag560
ag230
ag270
ag909
ag589
ag372
ag28
ag855
ag1144
ag426
ag607
ag1597
ag461
ag439
ag662
ag57
ag184
ag1195
ag1135
ag33
ag134
ag656
ag551
ag382
ag972
ag706
ag988
ag215
ag562
atRp2439
sS'inc:current therapy'
p2440
g3
((lp2441
g218
ag290
ag474
ag222
ag72
ag581
ag296
ag1387
ag274
ag1442
atRp2442
sS'inc:inspired fraction of oxygen'
p2443
g3
((lp2444
g145
ag1487
ag147
ag999
ag274
ag423
ag153
ag424
ag14
ag618
ag149
ag779
ag1221
ag160
ag161
ag427
ag166
ag984
ag881
ag168
ag67
ag668
ag428
ag1424
ag10
ag1140
ag172
ag173
ag174
ag325
ag638
ag177
ag589
ag181
ag517
ag184
ag188
ag2131
ag286
ag1430
ag196
ag854
ag652
ag199
ag203
ag204
ag205
ag1129
ag109
ag1435
ag210
ag542
ag2211
ag227
ag1762
ag217
ag219
ag539
ag501
ag622
ag222
ag2283
ag115
ag2217
ag583
ag1404
ag128
ag1142
ag802
ag231
ag233
ag245
ag883
ag1378
ag237
ag750
ag720
ag241
ag627
ag408
ag844
ag1270
ag243
ag880
ag1417
ag119
ag47
ag754
ag249
ag2188
ag454
ag443
ag757
ag1143
ag1751
ag737
ag444
ag230
ag1003
ag269
ag264
ag445
ag1034
ag546
ag1257
ag266
ag681
ag447
ag760
ag1899
ag458
ag270
ag1402
ag1108
ag855
ag154
ag133
ag448
ag278
ag279
ag805
ag122
ag281
ag1002
ag285
ag297
ag626
ag34
ag451
ag288
ag453
ag289
ag434
ag7
ag615
ag294
ag532
ag533
ag282
ag1374
ag107
ag299
ag300
ag1343
ag392
ag537
ag553
ag1597
ag303
ag304
ag332
ag267
ag302
ag310
ag1176
ag460
ag771
ag22
ag547
ag368
ag25
ag462
ag323
ag554
ag327
ag463
ag328
ag717
ag610
ag775
ag1081
ag1361
ag2007
ag333
atRp2445
sS'exc:arthritis'
p2446
g3
((lp2447
g24
ag2288
ag37
ag611
ag26
ag372
ag1212
ag1341
ag1742
ag733
ag38
atRp2448
sS'inc:contraceptive methods'
p2449
g3
((lp2450
g648
ag81
ag616
ag1342
ag905
ag965
ag89
ag1275
ag417
ag505
ag1164
ag24
ag173
ag551
ag1042
ag1260
ag1009
ag719
ag189
ag558
ag792
ag1926
ag581
ag203
ag204
ag1129
ag209
ag542
ag227
ag516
ag837
ag418
ag634
ag583
ag1404
ag1259
ag1442
ag2144
ag574
ag662
ag807
ag131
ag1710
ag240
ag576
ag99
ag38
ag5
ag440
ag119
ag57
ag250
ag140
ag338
ag548
ag590
ag19
ag343
ag1660
ag152
ag801
ag474
ag372
ag122
ag281
ag1047
ag494
ag781
ag97
ag1888
ag289
ag767
ag631
ag834
ag287
ag299
ag123
ag1230
ag582
ag332
ag1345
ag309
ag604
ag814
ag570
ag798
ag1818
ag799
ag316
ag72
ag224
ag340
ag414
ag641
ag1505
ag1964
ag333
ag334
ag849
ag1511
atRp2451
sS'exc:hematologic neoplasms'
p2452
g3
((lp2453
g353
ag2074
ag267
ag266
ag1985
ag191
ag380
ag270
ag177
ag2024
ag269
ag1483
atRp2454
sS'inc:transplantation'
p2455
g3
((lp2456
g5
ag440
ag290
ag581
ag203
ag296
ag247
ag299
ag1129
ag108
ag1342
ag2032
ag2329
ag253
ag632
ag1028
ag597
ag316
ag965
ag308
ag816
ag222
ag1014
ag312
ag1101
ag713
ag746
ag227
ag1547
ag268
ag267
ag295
ag461
ag551
ag274
ag1941
ag176
ag283
ag185
ag188
ag1108
ag1145
ag148
atRp2457
sS'exc:contraception barrier'
p2458
g3
((lp2459
g796
ag123
ag18
ag1476
ag2109
ag627
ag155
ag1472
atRp2460
sS'exc:positive end-expiratory pressure'
p2461
g3
((lp2462
g880
ag256
ag1414
ag227
ag464
ag605
ag1222
ag1075
ag554
ag965
ag109
atRp2463
sS'inc:brain'
p2464
g3
((lp2465
g5
ag1951
ag482
ag316
ag572
ag2299
ag185
ag920
ag477
ag552
ag1387
ag909
ag391
ag212
ag636
atRp2466
sS'inc:thrombocytopenia'
p2467
g3
((lp2468
g648
ag62
ag473
ag558
ag270
ag246
ag477
ag66
ag472
ag753
atRp2469
sS'inc:pulmonary embolism'
p2470
g3
((lp2471
g62
ag216
ag162
ag315
ag204
ag189
ag212
atRp2472
sS'inc:dementia'
p2473
g3
((lp2474
g283
ag794
ag2381
ag552
ag1290
atRp2475
sS'exc:retinal diseases'
p2476
g3
((lp2477
g1487
ag648
ag218
ag1733
ag1734
ag963
ag2074
ag1254
ag834
ag596
ag536
ag1248
ag390
ag835
ag354
ag905
ag86
ag253
ag140
ag282
ag128
ag90
ag685
ag1213
ag1500
ag569
ag604
ag540
ag814
ag838
ag397
ag953
ag49
ag1462
ag156
ag15
ag1113
ag402
ag1471
ag93
ag403
ag978
ag369
ag1495
ag175
ag846
ag1740
ag371
ag232
ag372
ag843
ag404
ag738
ag1260
ag374
ag405
ag121
ag1741
ag840
ag1742
ag106
ag1985
ag131
ag406
ag380
ag242
ag407
ag1743
ag192
ag139
ag849
ag794
ag670
atRp2478
sS'exc:body mass index'
p2479
g3
((lp2480
g648
ag7
ag524
ag754
ag132
ag472
ag1374
ag1343
ag601
ag969
ag602
ag1762
ag1231
ag311
ag362
ag633
ag637
ag1140
ag16
ag26
ag1586
ag181
ag1899
ag1751
ag971
ag410
atRp2481
sS'inc:decreased translucency'
p2482
g3
((lp2483
g196
ag150
ag147
ag194
ag831
ag1592
ag833
ag425
ag155
ag969
ag553
ag998
ag539
ag178
ag227
ag116
ag268
ag462
ag554
ag276
ag587
ag270
ag184
ag971
ag627
ag453
atRp2484
sS'inc:contraception barrier'
p2485
g3
((lp2486
g1660
ag188
ag224
ag583
ag474
ag1926
ag123
ag173
ag309
ag475
ag341
ag814
ag299
ag189
ag1342
ag209
ag1345
atRp2487
sS'inc:lactation'
p2488
g3
((lp2489
g1013
ag937
atRp2490
sS'maximum age = 35'
p2491
g3
((lp2492
g1800
atRp2493
sS'maximum age = 34'
p2494
g3
((lp2495
g362
atRp2496
sS'inc:angina unstable'
p2497
g3
((lp2498
g219
ag161
ag189
ag296
ag1129
ag250
ag428
ag663
atRp2499
sS'inc:arteriopathic disease'
p2500
g3
((lp2501
g15
ag1206
ag170
ag956
ag106
ag63
ag315
ag1130
ag176
ag341
ag220
ag1129
ag1115
ag510
atRp2502
sS'exc:refusal to participate'
p2503
g3
((lp2504
g1397
ag857
aS'NCT04355234'
p2505
ag2296
ag1503
ag1929
ag486
ag442
ag1037
ag927
ag617
ag13
ag2020
ag1026
aS'NCT04366817'
p2506
ag2090
ag1839
ag1301
ag779
ag788
ag2390
ag436
ag459
ag1850
ag2131
ag182
ag1038
ag1101
ag1439
ag2174
ag403
ag869
ag438
ag1405
ag888
ag2013
ag1259
ag2383
ag1378
ag787
ag2135
ag2069
aS'NCT04395924'
p2507
ag455
ag1308
ag44
ag432
ag2112
ag874
ag838
ag904
ag307
ag2306
atRp2508
sS'exc:lung diseases obstructive'
p2509
g3
((lp2510
g5
ag7
ag82
ag83
ag9
ag215
ag706
ag138
ag1230
ag601
ag338
ag597
ag796
ag90
ag474
ag24
ag1001
ag48
ag909
ag20
ag10
ag681
ag1596
ag572
ag25
ag560
ag230
ag270
ag551
ag372
ag28
ag553
ag607
ag439
ag662
ag184
ag656
ag972
atRp2511
sS'inc:life expectancy'
p2512
g3
((lp2513
g1428
ag458
ag290
ag227
ag2139
ag71
ag532
ag204
ag551
ag497
ag476
ag988
ag767
ag1818
atRp2514
sS'inc:hiv infections'
p2515
g3
((lp2516
g315
ag290
ag2000
ag473
ag516
ag295
ag203
ag816
ag296
ag1129
ag222
ag2073
ag1725
ag343
ag189
atRp2517
sS'minimum age = 19'
p2518
g3
((lp2519
g401
ag709
ag2140
ag1599
ag2205
ag187
ag338
ag1739
ag2144
ag1595
atRp2520
sS'minimum age = 18'
p2521
g3
((lp2522
g84
ag729
ag1822
ag110
ag1824
ag881
ag169
ag657
ag1230
ag430
ag1706
ag171
ag72
ag175
ag1247
ag1828
ag1829
ag1392
ag1376
ag1646
ag1830
ag740
ag1568
ag1832
ag671
ag1762
ag1834
ag1835
ag1693
ag839
ag514
ag1142
ag1740
ag1495
ag235
ag1378
ag574
ag720
ag123
ag242
ag627
ag1166
ag1206
ag1841
ag1842
ag1498
ag788
ag1843
ag1562
ag1844
ag265
ag882
ag1113
ag1548
ag270
ag1847
ag1848
ag372
ag1144
ag715
ag281
ag455
ag34
ag915
ag389
ag1851
ag291
ag292
ag294
ag534
ag1854
ag1856
ag1857
ag633
ag1858
ag1859
ag1860
ag1000
ag1465
ag554
ag774
ag1862
ag1825
ag806
ag610
ag1449
ag1863
ag722
ag1413
ag1165
ag1416
ag87
ag167
ag1584
ag572
ag2171
ag1865
ag952
ag1866
ag1043
ag994
ag992
ag204
ag1868
ag1543
ag109
ag1870
ag602
ag1871
ag1872
ag219
ag1720
ag400
ag491
ag1258
ag2137
ag624
ag1874
ag1589
ag239
ag237
ag1496
ag1876
ag243
ag259
ag350
ag1880
ag1686
ag927
ag508
ag249
ag140
ag1882
ag1702
ag1884
ag1573
ag1453
ag1885
ag1257
ag1721
ag590
ag1005
ag1524
ag378
ag1887
ag663
ag1888
ag1889
ag988
ag1285
ag1890
ag1502
ag654
ag631
ag298
ag299
ag858
ag1174
ag537
ag969
ag305
ag1892
ag1893
ag770
ag510
ag1895
ag1896
ag1897
ag322
ag375
ag2256
ag1899
ag1195
ag1108
ag145
ag1901
ag81
ag1902
ag1397
ag423
ag1903
ag1904
ag159
ag149
ag1905
ag1906
ag1907
ag65
ag1908
ag376
ag589
ag151
ag476
ag1912
ag1913
ag1014
ag792
ag203
ag1791
ag210
ag1914
ag213
ag2139
ag884
ag402
ag583
ag71
ag1727
ag1655
ag552
ag555
ag749
ag1916
ag1917
ag1919
ag1637
ag1921
ag481
ag440
ag1814
ag535
ag443
aS'NCT04384887'
p2523
ag1922
ag502
ag1923
ag1924
ag1275
ag273
ag1185
ag1925
ag834
ag1145
ag1927
ag1928
ag2038
ag1341
ag531
ag532
ag1930
ag1850
ag1374
ag287
ag2143
ag473
ag332
ag1931
ag363
ag1036
ag1933
ag1440
aS'NCT04402918'
p2524
ag321
ag1934
ag85
ag111
ag1936
ag1598
ag1518
ag1445
ag1900
ag849
ag104
ag1910
ag728
ag425
ag1342
ag779
ag1482
ag427
ag1939
ag492
ag365
ag255
ag177
ag1940
ag377
ag971
ag1356
ag208
ag1430
ag197
ag1944
ag1021
ag1945
ag1644
ag707
ag1946
ag1947
ag1948
ag1949
ag1200
ag220
ag509
ag94
ag1804
ag1952
ag1953
ag625
ag787
ag275
ag1954
ag1711
ag880
ag1955
ag1956
ag1957
ag252
ag1958
ag1959
ag758
ag1960
ag257
ag1961
ag2218
ag1650
ag66
ag953
ag20
ag713
ag1963
ag1964
ag1085
ag274
ag277
ag1456
ag1246
ag1966
ag1967
ag1968
ag1969
ag290
ag1845
ag297
ag1569
ag1117
ag606
ag1970
ag308
ag1493
ag1971
ag1687
ag22
ag36
ag1972
ag567
ag1193
ag323
ag327
ag463
ag2507
ag822
ag1555
ag1467
ag1510
ag1049
ag419
ag1974
ag1528
ag1414
ag1736
ag1976
ag1254
ag905
ag1277
ag1270
ag948
ag1977
ag1978
ag367
ag174
ag731
ag604
ag1979
ag845
ag50
ag1980
aS'NCT04369859'
p2525
ag432
ag1982
ag1665
ag195
ag1983
ag1789
ag1698
ag1642
ag1984
ag1985
ag1986
ag1988
aS'NCT04336787'
p2526
ag993
ag1989
ag1990
ag225
ag1404
ag1652
ag802
ag371
ag1991
ag234
ag240
ag783
ag1993
ag1375
ag1084
ag1994
ag1995
ag1173
ag1641
ag823
ag1751
ag258
ag395
ag760
ag682
ag1997
ag1998
ag1999
ag448
ag67
ag805
ag556
ag1046
ag557
ag525
ag721
ag1178
ag615
ag653
ag1136
ag596
ag601
ag1597
ag2002
ag311
ag859
ag1594
ag772
ag547
ag1596
ag482
ag369
ag549
ag1464
ag95
ag1694
ag2004
ag659
ag2005
ag77
ag2006
ag2007
ag1083
ag146
ag1213
ag524
ag816
ag394
ag2009
ag538
ag2010
ag162
ag163
ag1038
ag2011
ag764
ag2012
ag173
ag2013
ag404
ag1425
ag1079
ag2015
ag642
ag2016
ag2017
ag1587
ag854
ag2018
ag793
ag2019
ag2020
ag2021
ag835
ag742
ag435
ag217
ag18
ag221
ag623
ag1920
ag93
ag2022
ag2023
ag2024
ag1549
ag2025
ag1045
ag2026
ag1659
ag1471
ag1618
ag753
ag442
ag13
ag2028
ag1591
ag361
ag1231
ag541
ag362
ag262
ag1153
ag2030
ag843
ag2031
ag544
ag2033
ag1550
ag2034
ag1662
ag450
ag2035
ag928
ag644
ag2037
ag7
ag973
ag1212
ag1387
ag356
ag1932
ag2040
ag1546
ag553
ag64
ag2041
ag2043
ag366
ag340
ag856
ag1799
ag326
ag2044
ag575
ag1511
ag616
ag727
ag1645
ag353
ag1676
ag1207
ag2047
ag505
ag2048
ag2049
ag2050
ag622
ag1140
ag551
ag2053
ag964
ag1733
ag1586
ag405
ag2054
ag1380
ag1428
ag183
ag719
ag1709
ag2055
ag2056
ag2057
ag1256
ag198
ag739
ag202
ag2058
ag2059
ag536
ag1701
ag566
ag2060
ag436
ag1437
ag595
ag69
ag1107
ag1175
ag2061
ag2062
ag807
ag241
ag2063
ag409
ag2065
ag1422
ag1211
aS'NCT04388605'
p2527
ag2066
ag59
ag253
ag684
ag908
ag49
ag364
ag278
ag2069
ag1302
ag2070
ag2071
ag2072
ag2073
ag2074
ag296
ag1343
ag88
ag304
ag309
ag1225
ag570
ag2076
ag2077
ag2078
ag2079
ag25
ag2080
ag461
ag1724
ag929
ag328
ag717
ag641
ag1081
ag2081
ag334
ag2082
ag1019
ag2084
ag2085
ag137
ag2087
ag403
ag182
ag2090
ag956
ag1481
ag186
ag2091
ag1431
ag2093
ag82
ag2094
ag1281
ag655
ag205
ag2095
ag736
ag2267
ag516
ag2098
ag539
ag342
ag841
ag746
ag2099
ag226
ag1039
ag605
ag573
ag2100
ag1222
ag75
ag439
ag2101
ag2102
ag1226
ag1050
ag1051
ag2103
ag112
ag2104
ag444
ag247
ag2106
ag1004
ag756
ag1391
ag620
ag2108
ag1224
ag571
ag1034
ag2109
ag2110
ag855
ag716
ag180
ag2111
ag284
ag1743
ag37
ag2113
ag767
ag486
ag2115
ag2396
ag209
ag2118
ag2119
ag799
ag970
ag70
ag773
ag2120
ag661
ag2122
ag1284
ag2405
ag83
ag1355
aS'NCT04407572'
p2528
ag2124
ag155
ag2506
ag2127
ag2128
ag160
ag166
ag1164
ag170
ag638
ag330
ag1761
ag2130
ag734
ag611
ag1383
ag1082
ag2131
ag1744
ag1788
ag1590
ag54
ag2132
ag741
ag786
ag138
ag1894
ag2134
ag2136
aS'NCT04385238'
p2529
ag910
ag2138
ag2337
ag883
ag658
ag2142
ag233
ag2145
ag406
ag2146
ag38
ag1714
ag5
ag1134
ag2147
ag2148
ag1634
ag2149
ag836
ag2151
ag757
ag2152
ag2153
ag1351
ag260
ag782
ag2154
ag639
ag2155
ag2156
ag912
ag1047
ag283
ag191
ag2157
ag781
ag561
ag453
ag1875
ag351
ag1027
ag301
ag2159
ag302
ag497
ag1077
ag1278
ag798
ag2160
ag314
ag771
ag2161
ag42
ag1614
ag23
ag2162
ag357
ag2163
ag587
ag464
ag562
ag2166
ag506
ag1657
ag1398
ag1661
ag424
ag1718
ag58
ag2170
ag91
aS'NCT04351139'
p2530
ag2172
ag2173
ag2175
ag2176
ag1635
ag172
ag2177
ag1260
ag1009
ag804
ag1741
ag1194
ag2178
ag1800
ag503
ag2181
ag581
ag1664
ag1129
ag2182
ag1435
ag2183
ag1028
ag2184
ag397
ag206
ag998
ag380
ag231
ag1259
ag1438
ag493
ag2186
ag2187
ag381
ag1147
ag1689
ag1114
ag1013
ag244
ag246
ag250
ag2188
ag1545
ag977
ag263
ag343
ag759
ag1407
ag1704
ag2190
ag1041
ag136
ag2191
ag1125
ag2192
ag1152
ag1135
ag2193
ag452
ag1408
ag1713
ag2194
ag2505
ag132
ag282
ag107
ag1647
ag820
ag474
ag1106
ag152
ag814
ag1472
ag2199
ag1615
ag224
ag475
ag73
ag1688
ag775
ag1554
ag1402
ag582
ag830
ag648
ag490
ag9
ag1585
ag1399
ag2200
ag632
ag2201
ag2202
ag161
ag165
ag730
ag1033
ag10
ag2204
ag842
ag2206
ag1426
ag718
ag2208
ag184
ag2209
ag193
ag385
ag652
ag200
ag1245
ag2331
ag139
ag1217
aS'NCT04386798'
p2531
ag2210
ag2211
ag1029
ag2216
aS'NCT04389515'
p2532
ag1280
ag2219
ag2220
ag131
ag2221
ag496
ag1556
ag1446
ag2223
ag341
ag821
ag1109
ag1451
ag2227
ag16
ag393
ag269
ag2228
ag2384
ag526
ag696
ag266
ag1279
ag447
ag801
ag1202
ag154
ag279
ag815
ag765
ag1048
ag723
ag1497
ag1539
ag1458
ag2230
ag2231
ag1444
ag2232
ag1719
ag985
ag89
ag46
ag1345
ag2234
ag1462
ag318
ag2235
ag477
ag462
ag640
ag2236
ag2237
ag307
ag1538
ag459
ag2239
ag515
ag2240
ag2241
ag156
ag2244
ag1452
ag860
ag128
ag62
ag2245
ag429
ag24
ag339
aS'NCT04317365'
p2533
ag325
ag176
ag672
ag517
ag2246
ag431
ag617
ag199
ag2247
ag1434
ag211
ag1560
ag1269
ag415
ag2248
ag1418
ag1439
ag384
ag1366
ag29
ag373
ag1552
ag913
ag809
ag1447
ag1417
ag47
ag1344
ag2251
ag1255
ag2252
ag1373
ag15
ag2254
ag669
ag840
ag2255
ag978
ag2257
ag2258
ag2259
ag763
ag1382
ag280
ag494
ag410
ag710
ag293
ag1593
ag1504
ag1073
ag2264
ag768
ag2265
ag1461
ag2289
ag2266
ag315
ag214
aS'NCT04398264'
p2534
ag711
ag331
ag2270
ag1177
ag382
ag904
ag2271
ag465
ag150
ag147
ag2272
ag999
ag833
ag906
ag795
ag1563
ag607
ag1223
ag838
ag2274
ag1040
ag911
ag2278
ag808
ag495
ag2280
ag2281
ag196
ag1544
ag1737
ag504
ag1199
ag673
ag2283
ag223
ag68
ag229
ag2284
ag1405
ag437
ag576
ag857
ag2288
ag441
ag754
ag454
ag344
ag853
ag256
ag540
ag1403
ag1192
ag761
ag2294
ag1130
ag383
ag74
ag1459
ag1176
ag848
ag1002
aS'NCT04377412'
p2535
aS'NCT04366986'
p2536
ag1276
ag2290
ag289
ag1588
ag831
ag2295
ag2296
ag2297
ag458
ag1571
ag545
ag1818
ag1037
ag216
ag568
ag2299
ag2300
ag1118
ag530
ag2301
ag1909
ag986
ag1289
ag1361
ag2334
ag847
ag2303
ag1415
ag2306
ag1025
ag1074
ag1303
ag158
ag501
ag1221
ag2307
ag2308
ag2310
ag2312
ag1477
ag117
ag370
ag1466
ag1331
ag114
ag1491
ag407
ag2314
ag286
ag192
ag2316
ag43
ag254
ag1735
ag1248
ag86
ag2317
ag2318
ag115
ag1547
ag560
ag2320
ag2321
ag236
ag121
ag580
ag2322
ag2323
ag1141
ag1643
ag810
ag2325
ag349
ag1567
ag1023
ag1450
ag2328
ag702
ag2329
ag1499
ag1409
ag548
ag621
ag656
ag489
ag603
ag2332
ag19
ag1032
ag348
ag1455
ag685
ag1519
ag803
ag1078
ag446
ag55
ag1631
ag456
ag1139
ag303
ag1505
ag1574
ag2335
ag1951
ag320
ag1406
ag96
ag2336
ag2338
ag2339
ag2340
ag2341
ag1494
ag194
ag2343
ag2344
ag2345
ag706
ag14
ag618
ag979
ag1250
ag1420
ag712
ag2105
ag312
ag636
ag800
ag1031
ag1282
ag268
ag1042
ag179
ag733
ag181
ag955
ag1742
ag780
ag44
ag189
ag737
ag1576
ag738
ag914
ag103
ag785
ag1699
ag1433
ag434
ag1570
ag2348
ag1146
ag1116
ag542
ag907
ag2349
ag965
ag2350
ag218
ag1393
ag2052
ag634
ag2351
ag637
ag2353
ag2354
ag1441
ag119
ag2355
ag2356
ag76
ag751
ag1728
ag752
ag1347
ag2357
ag1487
ag1018
ag2358
ag963
ag2359
ag1542
ag1143
ag408
ag1500
ag264
ag445
ag546
ag178
ag1738
ag2203
ag1705
ag472
ag1551
ag276
ag120
ag122
ag2362
ag207
ag97
ag1663
ag2363
ag1357
ag1239
ag844
ag1022
ag533
ag2364
ag358
ag2365
ag1030
ag17
ag2366
ag2367
ag460
ag313
ag1379
ag1075
ag8
ag153
ag2370
ag2372
aS'NCT04389489'
p2537
ag837
ag2373
ag90
ag1076
ag1463
ag670
ag1725
ag1427
ag2225
ag188
ag2374
ag433
ag1666
ag105
ag201
ag185
ag2375
ag2376
ag2377
ag2379
ag1734
ag212
ag1492
ag1632
ag130
ag141
ag134
ag744
ag1723
ag2382
ag245
ag2383
ag1575
ag662
ag2385
ag129
ag2386
ag2387
ag2388
ag1540
ag1448
ag2389
ag755
ag1400
ag2390
ag2391
ag1553
ag48
ag2392
ag1501
ag1790
ag972
ag261
ag1346
ag1232
ag98
ag6
ag2397
ag1592
ag133
ag457
ag2399
ag1201
ag1001
ag1722
ag368
ag1443
ag1523
ag1483
ag1660
ag1600
ag333
atRp2538
sS'inc:embolism'
p2539
g3
((lp2540
g62
ag216
ag315
ag204
ag189
ag212
atRp2541
sS'inc:immunodeficiency virus'
p2542
g3
((lp2543
g267
ag227
ag1192
ag474
ag89
ag250
ag72
ag295
ag203
ag551
ag1129
ag1387
ag156
ag277
atRp2544
sS'minimum age = 13'
p2545
g3
((lp2546
S'NCT04323839'
p2547
atRp2548
sS'minimum age = 12'
p2549
g3
((lp2550
g127
ag215
ag248
ag1580
ag1506
ag732
ag1507
ag558
ag271
ag559
ag288
ag923
ag1708
ag2036
ag157
ag980
atRp2551
sS'minimum age = 11'
p2552
g3
((lp2553
g873
ag2233
atRp2554
sS'inc:intubation intratracheal'
p2555
g3
((lp2556
g587
ag785
ag217
ag1500
ag1082
ag973
ag109
ag979
atRp2557
sS'minimum age = 17'
p2558
g3
((lp2559
g2394
ag2226
ag1726
ag1318
atRp2560
sS'minimum age = 16'
p2561
g3
((lp2562
g2326
ag1163
ag1233
ag1333
ag108
ag2107
ag1823
ag1421
ag2097
ag1377
ag1658
ag619
ag1950
ag396
ag668
ag2185
ag2229
ag681
ag272
ag1656
ag2150
ag1249
ag1861
ag766
ag1616
ag451
ag2003
ag1337
atRp2563
sS'exc:inspired fraction of oxygen'
p2564
g3
((lp2565
g1424
ag251
ag291
ag999
ag781
ag1075
ag423
ag205
ag1903
ag155
ag454
ag59
ag1435
ag965
ag109
ag1448
ag969
ag209
ag769
ag504
ag1988
ag1351
ag884
ag428
ag882
ag429
ag227
ag1407
ag605
ag230
ag176
ag2259
ag1222
ag530
ag855
ag554
ag75
ag237
ag750
ag1406
ag752
ag525
ag971
ag736
ag34
ag627
ag721
atRp2566
sS'minimum age = 14'
p2567
g3
((lp2568
g1915
ag1653
ag626
ag1476
ag745
ag1853
ag60
atRp2569
sS'inc:unstable status'
p2570
g3
((lp2571
g458
ag663
ag497
ag203
ag204
ag296
ag219
ag1129
ag161
ag250
ag169
ag428
ag374
ag189
atRp2572
sS'exc:hepatitis'
p2573
g3
((lp2574
g880
ag5
ag81
ag792
ag8
ag250
ag56
ag282
ag384
ag107
ag299
ag97
ag1212
ag354
ag607
ag615
ag208
ag709
ag601
ag60
ag1344
ag502
ag796
ag602
ag857
ag394
ag603
ag141
ag181
ag604
ag219
ag798
ag253
ag1472
ag20
ag799
ag837
ag189
ag223
ag23
ag93
ag128
ag173
ag454
ag25
ag605
ag270
ag606
ag408
ag179
ag96
ag763
ag608
ag609
ag805
ag846
ag610
ag662
ag807
ag775
ag77
ag611
ag240
ag224
ag90
ag188
ag38
ag2136
ag161
ag2106
ag988
ag1084
atRp2575
sS'exc:venous thrombosis'
p2576
g3
((lp2577
g1355
ag454
ag706
ag504
ag1751
ag161
ag1223
ag219
ag669
ag66
ag1595
ag23
ag1584
ag978
ag605
ag573
ag76
ag610
ag62
ag1177
ag408
ag1357
atRp2578
sS'exc:alcohol abuse'
p2579
g3
((lp2580
g87
ag81
ag24
ag93
ag57
ag474
ag914
ag641
ag1438
ag106
ag20
ag90
ag99
atRp2581
sS'exc:immunocompromised host'
p2582
g3
((lp2583
g2166
ag524
ag282
ag353
ag138
ag858
ag835
ag1277
ag853
ag1591
ag1163
ag602
ag474
ag814
ag859
ag860
ag1077
ag1140
ag1963
ag1441
ag633
ag230
ag324
ag609
ag130
ag986
ag97
ag1246
ag2102
ag139
atRp2584
sS'exc:systolic pressure'
p2585
g3
((lp2586
g218
ag792
ag653
ag107
ag1073
ag837
ag16
ag338
ag796
ag427
ag361
ag219
ag222
ag571
ag1153
ag782
ag71
ag881
ag72
ag372
ag50
ag769
ag122
ag76
ag1152
ag808
atRp2587
sS'exc:cough with fever'
p2588
g3
((lp2589
g389
ag15
ag81
ag970
ag283
ag1195
ag1736
ag424
ag582
ag271
ag729
ag1102
ag881
ag954
ag354
ag738
ag253
ag322
ag515
atRp2590
sS'inc:renal function'
p2591
g3
((lp2592
g99
ag9
ag532
ag1129
ag222
ag208
ag277
atRp2593
sS'exc:asymptomatic'
p2594
g3
((lp2595
g1233
ag417
ag2148
ag56
ag247
ag536
ag208
ag2060
ag416
ag418
ag1278
ag342
ag1594
ag135
ag2261
ag1185
ag640
ag414
ag847
ag574
ag131
ag496
ag576
ag1689
atRp2596
sS'exc:kidney replacement procedure'
p2597
g3
((lp2598
g652
ag653
ag654
ag132
ag655
ag287
ag14
ag435
ag538
ag656
ag219
ag137
ag657
ag69
ag25
ag369
ag658
ag423
ag179
ag659
ag660
ag661
ag609
ag662
ag557
ag240
ag663
ag664
atRp2599
sS'exc:liver diseases'
p2600
g3
((lp2601
g952
ag1398
ag423
ag729
ag426
ag2308
ag90
ag668
ag399
ag24
ag175
ag846
ag177
ag670
ag1733
ag672
ag714
ag405
ag734
ag611
ag808
ag407
ag738
ag792
ag56
ag536
ag671
ag211
ag61
ag213
ag1762
ag141
ag838
ag397
ag673
ag514
ag637
ag93
ag491
ag135
ag232
ag29
ag461
ag662
ag807
ag240
ag11
ag409
ag809
ag1206
ag754
ag57
ag1450
ag659
ag709
ag253
ag393
ag408
ag1351
ag669
ag954
ag685
ag843
ag401
ag803
ag660
ag607
ag805
ag97
ag164
ag2363
ag37
ag988
ag1239
ag454
ag296
ag287
ag1343
ag601
ag606
ag796
ag799
ag369
ag73
ag340
ag1406
ag1648
ag96
ag111
ag806
ag329
ag775
ag641
atRp2602
sS'inc:medical contraindication'
p2603
g3
((lp2604
g2128
ag341
ag474
ag308
ag781
ag1856
ag246
ag425
ag342
atRp2605
sS'inc:bacterial infections'
p2606
g3
((lp2607
g179
ag589
ag430
atRp2608
sS'exc:hormonal contraception'
p2609
g3
((lp2610
g503
ag662
ag216
ag84
ag800
ag754
ag1762
ag1195
ag616
ag581
ag152
ag177
ag508
ag2363
ag1343
ag322
atRp2611
sS'exc:diastolic blood pressure'
p2612
g3
((lp2613
g122
ag16
ag769
ag1152
ag218
ag186
ag808
ag219
ag107
ag119
ag571
ag1153
ag50
ag546
atRp2614
sS'exc:sore to touch'
p2615
g3
((lp2616
g61
ag606
ag970
ag283
ag619
ag20
ag814
ag816
ag2074
ag27
ag815
ag2102
ag738
ag409
ag49
ag253
ag374
atRp2617
sS'exc:myasthenia gravis'
p2618
g3
((lp2619
g1212
ag956
ag403
ag1211
ag1213
ag838
ag19
ag814
ag232
ag798
ag952
ag390
ag953
ag905
ag398
ag156
ag400
ag759
atRp2620
sS'exc:respiratory distress'
p2621
g3
((lp2622
g1413
ag1294
ag1448
ag179
ag205
ag508
ag618
ag251
ag156
ag209
ag979
ag59
ag501
ag1116
ag1784
ag1192
ag18
ag1351
ag222
ag428
ag910
ag1404
ag1407
ag1406
ag1648
ag1144
ag374
ag912
ag131
ag1146
ag1114
ag1239
ag914
ag433
ag503
atRp2623
sS'inc:colchicine'
p2624
g3
((lp2625
g799
atRp2626
sS'exc:lopinavir'
p2627
g3
((lp2628
g438
ag402
ag1259
ag95
ag1258
ag416
ag436
ag1926
ag1278
ag18
ag838
ag455
ag27
ag606
ag1014
ag1743
ag1999
ag140
ag111
atRp2629
sS'inc:peritoneal dialysis'
p2630
g3
((lp2631
g583
ag447
ag171
ag161
ag428
ag301
atRp2632
sS'inc:mechanical ventilation'
p2633
g3
((lp2634
g127
ag1413
ag727
ag833
ag476
ag1903
ag74
ag425
ag979
ag147
ag779
ag1221
ag2308
ag2010
ag427
ag166
ag1223
ag744
ag47
ag10
ag430
ag1077
ag1140
ag173
ag268
ag1586
ag1079
ag804
ag281
ag1782
ag184
ag1082
ag424
ag2092
ag193
ag196
ag2057
ag854
ag652
ag739
ag1021
ag581
ag203
ag204
ag671
ag109
ag212
ag227
ag504
ag516
ag112
ag2131
ag841
ag225
ag1404
ag1142
ag181
ag573
ag27
ag624
ag1259
ag107
ag1222
ag783
ag1226
ag1465
ag880
ag552
ag244
ag754
ag250
ag2188
ag140
ag443
ag1751
ag408
ag260
ag541
ag669
ag1003
ag202
ag456
ag1034
ag759
ag267
ag1963
ag315
ag806
ag1108
ag1085
ag472
ag154
ag133
ag1005
ag278
ag805
ag1136
ag180
ag2111
ag1135
ag451
ag287
ag1968
ag1178
ag526
ag289
ag7
ag293
ag831
ag295
ag533
ag534
ag596
ag299
ag1343
ag11
ag537
ag304
ag1505
ag65
ag800
ag1177
ag1176
ag460
ag771
ag547
ag216
ag25
ag462
ag327
ag717
ag775
ag1762
ag2007
ag334
ag2303
atRp2635
sS'inc:hypoxemia'
p2636
g3
((lp2637
g440
ag199
ag1880
ag203
ag133
ag282
ag1374
ag979
ag1948
ag214
ag553
ag303
ag217
ag743
ag539
ag316
ag1379
ag2206
ag1221
ag1953
ag2382
ag274
ag331
ag1232
ag34
ag193
ag735
atRp2638
sS'inc:glucose-6-phosphate'
p2639
g3
((lp2640
g225
atRp2641
sS'inc:diastole'
p2642
g3
((lp2643
g81
ag458
ag656
ag161
ag203
ag272
ag929
ag109
ag428
atRp2644
sS'inc:hydroxychloroquine'
p2645
g3
((lp2646
g588
ag291
ag490
ag203
ag341
ag109
ag736
ag394
ag443
ag344
ag15
ag548
ag62
ag2189
ag1988
ag591
ag308
ag1393
ag590
ag342
ag49
ag343
ag1037
ag225
ag403
ag369
ag230
ag176
ag271
ag589
ag552
ag374
ag763
ag122
ag1742
ag986
ag1392
ag33
ag663
ag1366
ag1145
ag1084
atRp2647
sS'maximum age = 47'
p2648
g3
((lp2649
g1917
atRp2650
sS'gender = female'
p2651
g3
((lp2652
g1788
ag2505
ag2537
ag2547
ag2529
aS'NCT04319016'
p2653
ag2528
ag2536
ag2527
ag1569
ag2506
ag2531
ag1249
ag1250
ag1191
ag2526
ag2530
ag362
ag2523
ag1032
ag365
ag1791
ag2532
ag2524
ag2533
ag843
ag1247
ag773
ag1799
ag1043
ag85
ag357
ag375
ag2507
ag2535
ag1137
ag2525
ag381
ag21
ag2534
aS'NCT04181021'
p2654
ag1248
atRp2655
sS'maximum age = 130'
p2656
g3
((lp2657
g576
ag574
atRp2658
sS'inc:hypoxia'
p2659
g3
((lp2660
g1420
ag750
ag303
ag2045
ag332
ag737
ag308
ag486
ag1362
ag1176
ag152
ag662
ag289
ag671
ag1968
ag460
ag668
ag657
ag443
ag400
ag2368
atRp2661
sS'exc:hemodynamics'
p2662
g3
((lp2663
g150
ag1020
ag782
ag423
ag533
ag1374
ag706
ag905
ag796
ag504
ag306
ag427
ag999
ag1001
ag771
ag713
ag22
ag1404
ag1258
ag1441
ag25
ag998
ag462
ag323
ag715
ag181
ag1383
ag904
atRp2664
sS'exc:medical contraindication'
p2665
g3
((lp2666
g8
ag999
ag476
ag2200
ag2046
ag394
ag149
ag1823
ag160
ag1207
ag871
ag984
ag1164
ag167
ag881
ag2012
ag379
ag1362
ag404
ag1586
ag2182
ag642
ag971
ag706
ag1308
ag652
ag1775
ag1256
ag198
ag199
ag2094
ag2019
ag12
ag1129
ag835
ag566
ag1116
ag2136
ag396
ag838
ag342
ag884
ag2283
ag380
ag1836
ag2022
ag802
ag573
ag2025
ag555
ag2285
ag121
ag988
ag1710
ag241
ag1141
ag1465
ag1487
ag349
ag1259
ag1686
ag1023
ag130
ag535
ag2028
ag709
ag395
ag1231
ag202
ag953
ag546
ag1845
ag843
ag784
ag19
ag1402
ag1202
ag154
ag276
ag282
ag285
ag297
ag1232
ag452
ag139
ag561
ag389
ag2223
ag406
ag615
ag1593
ag1068
ag2255
ag631
ag1966
ag1374
ag794
ag783
ag1734
ag537
ag2040
ag985
ag969
ag1597
ag1213
ag311
ag314
ag772
ag1687
ag1139
ag1145
ag73
ag462
ag1075
ag640
ag1899
ag847
ag329
ag465
ag1510
ag2271
ag1284
ag980
ag849
ag1631
atRp2667
sS'maximum age = 79'
p2668
g3
((lp2669
g2331
ag374
ag1440
ag428
ag560
atRp2670
sS'maximum age = 76'
p2671
g3
((lp2672
g1275
atRp2673
sS'maximum age = 75'
p2674
g3
((lp2675
g197
ag1413
ag1458
ag290
ag351
ag339
ag1448
ag1068
ag533
ag1136
ag1588
ag1853
ag445
ag618
ag454
ag1904
ag1418
ag979
ag59
ag134
ag2203
ag447
ag1632
ag408
ag403
ag444
ag2330
ag1452
ag1351
ag1984
ag838
ag590
ag909
ag2011
ag2281
ag399
ag1462
ag583
ag93
ag367
ag71
ag859
ag263
ag370
ag340
ag231
ag379
ag1964
ag29
ag2033
ag1459
ag1456
ag1382
ag1406
ag47
ag2236
ag186
ag33
ag34
ag1407
ag37
atRp2676
sS'maximum age = 74'
p2677
g3
((lp2678
g610
atRp2679
sS'maximum age = 70'
p2680
g3
((lp2681
g1446
ag481
ag830
ag1020
ag151
ag204
ag2370
ag1946
ag2379
ag354
ag1343
ag392
ag60
ag1143
ag16
ag88
ag2097
ag1911
ag2189
ag1453
ag2252
ag798
ag2351
ag1971
ag681
ag118
ag936
ag136
ag1221
ag1733
ag274
ag2061
ag373
ag2338
ag1762
ag611
ag1444
ag407
ag1967
ag35
ag382
ag2386
ag1637
atRp2682
sS'exc:pregnancy test negative'
p2683
g3
((lp2684
g514
ag290
ag131
ag172
ag750
ag18
ag737
ag1472
ag1176
ag289
ag562
atRp2685
sS'exc:contraceptive methods'
p2686
g3
((lp2687
g197
ag81
ag503
ag216
ag642
ag754
ag616
ag151
ag152
ag84
ag287
ag155
ag109
ag1343
ag394
ag2363
ag796
ag1762
ag474
ag1213
ag18
ag1476
ag1164
ag743
ag312
ag1176
ag222
ag179
ag1472
ag20
ag1971
ag225
ag227
ag800
ag72
ag581
ag1193
ag177
ag322
ag372
ag552
ag313
ag508
ag277
ag2144
ag237
ag662
ag2109
ag131
ag1598
ag123
ag1195
ag627
ag1014
ag189
ag915
ag1239
ag735
atRp2688
sS'maximum age = 125'
p2689
g3
((lp2690
g2134
atRp2691
sS'inc:positive end-expiratory pressure'
p2692
g3
((lp2693
g7
ag754
ag203
ag533
ag534
ag1343
ag537
ag553
ag1762
ag427
ag539
ag2131
ag669
ag668
ag1034
ag227
ag831
ag174
ag883
ag1108
ag462
ag554
ag325
ag281
ag1002
ag775
ag184
ag626
ag1361
ag627
atRp2694
sS'exc:kidney failure'
p2695
g3
((lp2696
g5
ag1487
ag1355
ag1413
ag440
ag830
ag291
ag1233
ag423
ag533
ag57
ag535
ag353
ag536
ag1212
ag1341
ag1451
ag836
ag276
ag210
ag211
ag558
ag87
ag907
ag795
ag403
ag1361
ag604
ag311
ag838
ag798
ag839
ag840
ag264
ag399
ag1462
ag178
ag1230
ag2335
ag69
ag978
ag842
ag843
ag801
ag460
ag1085
ag1999
ag96
ag845
ag555
ag661
ag609
ag183
ag31
ag1616
ag205
ag186
ag1383
ag2209
ag286
ag14
ag844
ag735
ag794
ag670
atRp2697
sS'exc:respiratory distress syndrome'
p2698
g3
((lp2699
g6
ag501
ag502
ag503
ag77
ag205
ag505
ag1413
ag507
ag508
ag506
ag179
ag206
ag209
ag510
atRp2700
sS'inc:extracorporeal membrane oxygenation'
p2701
g3
((lp2702
g1035
ag62
ag547
ag180
ag227
ag281
ag216
ag47
ag319
ag1231
ag663
ag627
ag1465
ag2308
ag74
ag109
ag1080
ag1552
atRp2703
sS'inc:serum creatinine level'
p2704
g3
((lp2705
g5
ag1660
ag553
ag1563
ag9
ag1129
ag2379
ag583
atRp2706
sS'inc:alcohol abuse'
p2707
g3
((lp2708
g414
ag197
ag338
ag200
ag72
ag416
ag418
ag189
ag965
ag417
atRp2709
sS'minimum age = 55'
p2710
g3
((lp2711
g2313
ag1981
atRp2712
sS'exc:hypoxemia'
p2713
g3
((lp2714
g969
ag290
ag1596
ag1075
ag971
ag230
ag627
ag497
ag836
ag845
atRp2715
sS'minimum age = 50'
p2716
g3
((lp2717
g61
ag438
ag588
ag33
ag164
ag697
ag1442
ag391
atRp2718
sS'inc:immunocompromised host'
p2719
g3
((lp2720
g15
ag225
ag1455
ag316
ag283
ag309
ag203
ag242
ag247
ag2165
ag640
ag618
ag324
ag277
ag156
ag265
atRp2721
sS'exc:kidney diseases'
p2722
g3
((lp2723
g641
ag615
ag739
ag2094
ag292
ag11
ag83
ag754
ag1113
ag2101
ag57
ag1741
ag671
ag566
ag1343
ag601
ag632
ag187
ag606
ag426
ag473
ag1762
ag656
ag253
ag793
ag1234
ag954
ag673
ag49
ag657
ag635
ag29
ag1595
ag156
ag514
ag106
ag637
ag685
ag1258
ag457
ag369
ag846
ag1495
ag230
ag340
ag177
ag372
ag843
ag1733
ag911
ag672
ag405
ag2293
ag399
ag1244
ag806
ag662
ag807
ag775
ag1710
ag1926
ag808
ag90
ag1356
ag35
ag2363
ag1743
ag37
ag461
ag810
atRp2724
sS'exc:positive pregnancy test'
p2725
g3
((lp2726
g648
ag1417
ag198
ag1414
ag1592
ag84
ag729
ag1450
ag673
ag425
ag836
ag33
ag542
ag1277
ag15
ag435
ag338
ag332
ag1476
ag269
ag884
ag1971
ag1139
ag514
ag266
ag128
ag638
ag177
ag1402
ag911
ag1442
ag67
ag236
ag2259
ag464
ag241
ag217
ag507
ag706
ag334
atRp2727
sS'inc:obesity'
p2728
g3
((lp2729
g1487
ag588
ag106
ag247
ag253
ag1069
ag149
ag597
ag769
ag656
ag309
ag112
ag265
ag1113
ag170
ag224
ag175
ag268
ag1115
ag121
ag956
ag1289
ag1925
ag783
ag333
ag238
ag914
atRp2730
sS'inc:heart diseases'
p2731
g3
((lp2732
g1206
ag948
ag515
ag616
ag1129
ag344
ag214
ag161
ag308
ag459
ag428
ag343
ag189
ag1113
ag224
ag72
ag176
ag261
ag326
ag181
ag121
ag329
ag123
ag265
ag334
atRp2733
sS'inc:liver dysfunction'
p2734
g3
((lp2735
g219
ag161
atRp2736
sS'inc:thrombosis'
p2737
g3
((lp2738
g62
ag216
ag315
ag187
ag573
ag204
ag212
atRp2739
sS'inc:rhinorrhea'
p2740
g3
((lp2741
g103
ag438
ag193
ag792
ag95
ag486
ag436
ag1059
ag1200
ag442
ag151
ag432
ag455
ag247
ag179
ag722
ag111
atRp2742
sS'inc:hepatitis c'
p2743
g3
((lp2744
g197
ag290
ag203
ag107
ag299
ag1129
ag965
ag338
ag602
ag89
ag474
ag1344
ag225
ag267
ag72
ag173
ag230
ag461
ag551
ag179
ag374
ag189
atRp2745
sS'exc:thrombosis'
p2746
g3
((lp2747
g61
ag610
ag454
ag504
ag62
ag224
ag219
ag669
ag1145
ag66
ag1357
ag561
ag99
ag1177
atRp2748
sS'exc:peritoneal dialysis'
p2749
g3
((lp2750
g435
ag25
ag378
ag408
ag660
ag94
ag821
ag423
ag240
ag219
ag287
ag14
ag659
ag715
ag107
ag609
atRp2751
sS'exc:noninvasive ventilation'
p2752
g3
((lp2753
g912
ag184
ag65
ag656
ag653
ag25
ag560
ag34
ag205
ag706
ag914
ag1303
atRp2754
sS'inc:body mass'
p2755
g3
((lp2756
g1487
ag197
ag81
ag106
ag417
ag631
ag156
ag170
ag338
ag597
ag89
ag474
ag1307
ag416
ag418
ag909
ag20
ag265
ag970
ag760
ag937
ag224
ag72
ag461
ag414
ag1193
ag611
ag97
ag35
atRp2757
sS'exc:hiv infections'
p2758
g3
((lp2759
g5
ag545
ag641
ag530
ag8
ag1042
ag832
ag57
ag1212
ag58
ag268
ag1343
ag637
ag603
ag743
ag18
ag539
ag744
ag798
ag544
ag571
ag1507
ag1279
ag1140
ag25
ag174
ag26
ag638
ag1259
ag1472
ag374
ag175
ag111
ag640
ag270
ag191
ag735
ag557
ag525
ag188
ag1285
ag99
atRp2760
sS'exc:renal function'
p2761
g3
((lp2762
g121
ag1741
ag2202
ag288
ag304
ag141
ag2259
ag745
ag300
ag67
ag129
ag1734
ag119
ag236
atRp2763
sS'inc:drug abuse'
p2764
g3
((lp2765
g463
ag414
ag378
ag417
ag416
ag418
ag189
ag965
atRp2766
sS'inc:diabetes'
p2767
g3
((lp2768
g1487
ag197
ag588
ag251
ag106
ag203
ag296
ag247
ag2124
ag1115
ag349
ag156
ag209
ag253
ag1069
ag2075
ag15
ag149
ag214
ag597
ag769
ag277
ag163
ag309
ag112
ag595
ag312
ag220
ag167
ag169
ag510
ag265
ag1113
ag178
ag170
ag224
ag1130
ag308
ag175
ag176
ag1402
ag1523
ag261
ag96
ag1125
ag1426
ag326
ag278
ag329
ag121
ag268
ag1097
ag956
ag341
ag242
ag35
ag218
ag707
ag333
ag238
ag914
atRp2769
sS'exc:signs and symptoms respiratory'
p2770
g3
((lp2771
g61
ag81
ag907
ag637
ag402
ag1020
ag1706
ag63
ag815
ag1099
ag312
ag92
ag311
ag814
ag1413
ag98
ag1735
ag374
ag410
ag588
ag764
atRp2772
sS'exc:lopinavir / ritonavir'
p2773
g3
((lp2774
g438
ag402
ag1743
ag95
ag1258
ag63
ag436
ag1926
ag1278
ag18
ag152
ag455
ag27
ag606
ag1014
ag838
ag1259
ag111
atRp2775
sS'exc:thromboembolism'
p2776
g3
((lp2777
g2040
ag213
ag224
ag65
ag70
ag71
ag1762
ag73
ag12
ag1450
ag141
ag1357
ag571
ag67
ag668
ag99
ag1595
atRp2778
sS'inc:pregnancy test negative'
p2779
g3
((lp2780
g197
ag1413
ag440
ag1686
ag631
ag57
ag834
ag299
ag671
ag1442
ag128
ag474
ag814
ag798
ag634
ag673
ag343
ag547
ag1230
ag853
ag1615
ag173
ag801
ag340
ag551
ag274
ag1926
ag1009
ag1660
ag268
ag131
ag641
ag781
ag188
ag928
ag456
ag1511
atRp2781
sS'exc:monoclonal'
p2782
g3
((lp2783
g5
ag1417
ag653
ag1415
ag147
ag1129
ag542
ag1277
ag985
ag458
ag393
ag217
ag2019
ag1014
ag785
ag267
ag1635
ag560
ag268
ag552
ag640
ag77
ag1145
ag99
atRp2784
sS'exc:cardiac arrhythmia'
p2785
g3
((lp2786
g5
ag648
ag19
ag7
ag349
ag963
ag1341
ag442
ag631
ag2074
ag1254
ag596
ag8
ag13
ag794
ag390
ag836
ag140
ag33
ag253
ag59
ag15
ag86
ag426
ag393
ag436
ag380
ag18
ag455
ag684
ag685
ag570
ag167
ag397
ag953
ag342
ag312
ag635
ag21
ag10
ag24
ag36
ag403
ag117
ag572
ag135
ag1495
ag176
ag954
ag95
ag106
ag670
ag29
ag554
ag111
ag141
ag30
ag438
ag574
ag956
ag1985
ag131
ag31
ag77
ag32
ag432
ag2035
ag353
ag218
ag1743
ag37
ag576
ag1084
ag1511
atRp2787
sS'inc:hepatitis c virus'
p2788
g3
((lp2789
g414
ag197
ag338
ag430
ag602
ag267
ag474
ag416
ag72
ag309
ag203
ag418
ag461
ag551
ag1129
ag179
ag1185
ag417
atRp2790
sS'exc:polymerase'
p2791
g3
((lp2792
g81
ag378
ag94
ag605
ag560
ag736
ag123
ag988
atRp2793
sS'inc:noninvasive ventilation'
p2794
g3
((lp2795
g196
ag147
ag1592
ag535
ag596
ag1734
ag212
ag435
ag2202
ag1597
ag217
ag459
ag66
ag1439
ag1142
ag320
ag548
ag555
ag1232
ag107
ag1968
ag562
atRp2796
sS'exc:hydroxychloroquine'
p2797
g3
((lp2798
g648
ag404
ag1736
ag1269
ag1661
ag353
ag569
ag390
ag155
ag905
ag2201
ag1676
ag2202
ag62
ag120
ag814
ag1471
ag685
ag1738
ag312
ag267
ag403
ag175
ag670
ag952
ag1260
ag405
ag1742
ag956
ag1165
ag432
ag407
ag1014
ag189
ag192
ag193
ag19
ag82
ag1735
ag56
ag1985
ag536
ag1248
ag671
ag835
ag1734
ag86
ag156
ag597
ag63
ag436
ag18
ag157
ag396
ag838
ag342
ag673
ag1739
ag402
ag380
ag605
ag1495
ag1740
ag371
ag232
ag1259
ag738
ag749
ag121
ag461
ag438
ag135
ag131
ag406
ag2322
ag409
ag809
ag1487
ag603
ag119
ag441
ag442
ag1023
ag13
ag140
ag709
ag253
ag15
ag977
ag393
ag540
ag395
ag1500
ag684
ag590
ag953
ag49
ag1795
ag1113
ag1254
ag1455
ag760
ag152
ag843
ag401
ag544
ag803
ag1999
ag660
ag763
ag455
ag557
ag33
ag2035
ag1743
ag139
ag389
ag2223
ag123
ag106
ag1099
ag2074
ag282
ag834
ag596
ag1341
ag794
ag606
ag1213
ag1737
ag604
ag1278
ag545
ag369
ag340
ag1465
ag659
ag111
ag840
ag849
ag465
atRp2799
sS'inc:monoclonal'
p2800
g3
((lp2801
g425
ag1635
ag156
ag562
ag1387
atRp2802
sS'exc:body mass'
p2803
g3
((lp2804
g1899
ag969
ag7
ag1762
ag1751
ag754
ag971
ag132
ag1374
ag472
ag1343
atRp2805
sS'exc:kidney glomerulus'
p2806
g3
((lp2807
g145
ag178
ag792
ag739
ag793
ag441
ag84
ag287
ag1450
ag128
ag96
ag14
ag440
ag794
ag457
ag87
ag213
ag606
ag795
ag796
ag684
ag106
ag604
ag219
ag797
ag798
ag953
ag799
ag224
ag216
ag491
ag800
ag615
ag25
ag801
ag560
ag802
ag340
ag135
ag803
ag659
ag374
ag405
ag50
ag278
ag804
ag805
ag461
ag806
ag275
ag807
ag378
ag660
ag240
ag808
ag286
ag809
ag810
atRp2808
sS'inc:asymptomatic'
p2809
g3
((lp2810
g1487
ag648
ag1114
ag105
ag963
ag2019
ag47
ag261
ag1116
ag247
ag2263
ag536
ag1341
ag1498
ag1702
ag1823
ag502
ag1191
ag342
ag1594
ag1574
ag380
ag94
ag1142
ag1909
ag2053
ag2025
ag1651
ag2062
ag181
ag815
ag1916
ag1631
ag33
ag1147
atRp2811
sS'exc:hemorrhage'
p2812
g3
((lp2813
g641
ag251
ag352
ag200
ag1326
ag485
ag1099
ag631
ag533
ag1448
ag246
ag707
ag636
ag58
ag836
ag140
ag252
ag394
ag208
ag2040
ag61
ag652
ag548
ag602
ag1762
ag332
ag2214
ag69
ag1616
ag349
ag569
ag844
ag24
ag541
ag797
ag167
ag839
ag120
ag571
ag67
ag74
ag1595
ag782
ag294
ag681
ag65
ag73
ag1596
ag572
ag25
ag937
ag320
ag843
ag731
ag546
ag888
ag444
ag372
ag423
ag29
ag303
ag154
ag714
ag448
ag20
ag23
ag573
ag76
ag62
ag734
ag57
ag77
ag765
ag97
ag187
ag2007
ag1477
ag37
ag1357
ag561
ag99
ag841
atRp2814
sS'exc:dementia'
p2815
g3
((lp2816
g1538
ag1189
ag292
ag352
ag2057
ag1290
ag2124
ag2226
ag2227
ag303
ag17
ag1931
ag163
ag1584
ag401
ag784
ag1175
ag383
ag30
ag846
ag1899
ag1710
atRp2817
sS'inc:arthritis'
p2818
g3
((lp2819
g340
ag549
ag922
atRp2820
sS'inc:diastolic blood pressure'
p2821
g3
((lp2822
g81
ag458
ag656
ag161
ag203
ag272
ag929
ag109
ag428
atRp2823
sS'inc:lung diseases'
p2824
g3
((lp2825
g1487
ag308
ag251
ag106
ag202
ag261
ag204
ag1136
ag296
ag247
ag250
ag140
ag209
ag253
ag156
ag15
ag214
ag163
ag309
ag112
ag1048
ag220
ag169
ag265
ag1138
ag224
ag170
ag227
ag267
ag72
ag319
ag255
ag174
ag175
ag176
ag1108
ag234
ag476
ag276
ag277
ag278
ag121
ag329
ag283
ag1135
ag242
ag322
ag218
ag333
ag794
atRp2826
sS'inc:anosmia'
p2827
g3
((lp2828
g117
ag1502
ag2266
ag1923
ag848
ag62
ag116
ag54
ag403
ag1200
ag1872
ag118
ag461
ag105
ag1199
ag843
ag1042
ag280
ag49
ag1462
ag1202
atRp2829
sS'exc:unstable status'
p2830
g3
((lp2831
g5
ag8
ag1924
ag7
ag652
ag999
ag351
ag1593
ag9
ag782
ag423
ag727
ag12
ag247
ag13
ag14
ag2125
ag15
ag91
ag16
ag88
ag568
ag17
ag1191
ag361
ag18
ag312
ag2224
ag19
ag20
ag1739
ag2283
ag638
ag22
ag2299
ag1584
ag25
ag26
ag731
ag27
ag462
ag29
ag1586
ag96
ag554
ag11
ag1459
ag169
ag314
ag463
ag340
ag1899
ag771
ag10
ag378
ag33
ag34
ag283
ag507
ag35
ag36
ag37
ag38
ag28
atRp2832
sS'exc:lactation'
p2833
g3
((lp2834
g389
ag57
ag1355
ag481
ag115
ag830
ag350
ag292
ag754
ag1173
ag1136
ag296
ag454
ag905
ag1343
ag1027
ag606
ag2094
ag1960
ag1762
ag408
ag1213
ag1616
ag838
ag570
ag460
ag2363
ag264
ag1269
ag114
ag504
ag978
ag367
ag761
ag224
ag883
ag177
ag718
ag74
ag276
ag608
ag848
ag237
ag493
ag722
ag393
ag281
ag95
ag494
ag641
ag231
ag34
ag1888
ag382
ag218
ag1347
ag1284
ag2070
ag1285
atRp2835
sS'inc:respiratory failure'
p2836
g3
((lp2837
g855
ag616
ag833
ag153
ag424
ag14
ag2202
ag168
ag430
ag65
ag1140
ag173
ag325
ag731
ag804
ag735
ag188
ag737
ag914
ag1782
ag433
ag1021
ag1373
ag204
ag434
ag109
ag2060
ag504
ag1762
ag63
ag743
ag227
ag71
ag802
ag1222
ag1366
ag1259
ag245
ag1589
ag1378
ag750
ag123
ag1444
ag241
ag576
ag243
ag1013
ag47
ag754
ag249
ag250
ag2188
ag702
ag252
ag443
ag408
ag1231
ag202
ag445
ag1113
ag1108
ag261
ag154
ag11
ag279
ag557
ag285
ag1135
ag451
ag1178
ag844
ag7
ag291
ag294
ag2255
ag1136
ag297
ag299
ag1343
ag1027
ag1030
ag303
ag22
ag1118
ag327
ag2368
ag775
atRp2838
sS'inc:retinal diseases'
p2839
g3
((lp2840
g597
ag1391
ag33
ag176
ag1393
ag396
ag589
ag343
ag590
ag400
ag344
atRp2841
sS'inc:oral medication'
p2842
g3
((lp2843
g15
ag1703
ag33
ag176
ag1888
ag156
ag510
atRp2844
sS'minimum age = 28'
p2845
g3
((lp2846
g449
atRp2847
sS'inc:therapeutic immunosuppression'
p2848
g3
((lp2849
g1528
ag251
ag290
ag581
ag296
ag253
ag338
ag597
ag218
ag816
ag222
ag1113
ag170
ag339
ag224
ag268
ag274
ag607
ag176
ag956
ag1985
ag189
ag238
atRp2850
sS'minimum age = 25'
p2851
g3
((lp2852
g1729
ag2342
ag1238
ag743
ag35
ag354
ag1712
ag735
atRp2853
sS'minimum age = 22'
p2854
g3
((lp2855
g507
ag2168
atRp2856
sS'minimum age = 23'
p2857
g3
((lp2858
g1240
atRp2859
sS'minimum age = 20'
p2860
g3
((lp2861
g416
ag1700
ag2243
ag355
ag426
ag1911
ag1855
ag417
ag418
ag2330
ag1283
ag954
ag635
ag1795
ag227
ag1654
ag1827
ag374
ag414
ag2189
ag643
ag2371
atRp2862
sS'minimum age = 21'
p2863
g3
((lp2864
g2207
ag750
ag2212
ag2045
ag1244
ag1710
ag2279
ag2346
ag1839
ag135
ag1707
ag399
ag359
atRp2865
sS'inc:hepatitis'
p2866
g3
((lp2867
g197
ag290
ag200
ag203
ag1129
ag965
ag1125
ag338
ag602
ag89
ag474
ag309
ag225
ag267
ag315
ag72
ag230
ag461
ag551
ag631
ag374
ag1725
ag1014
atRp2868
sS'inc:renal insufficiency'
p2869
g3
((lp2870
g1420
ag63
ag225
ag515
ag447
atRp2871
sS'exc:respiratory distress syndrome adult'
p2872
g3
((lp2873
g6
ag196
ag7
ag503
ag992
ag282
ag508
ag209
ag965
ag537
ag435
ag779
ag502
ag553
ag62
ag1988
ag306
ag603
ag505
ag993
ag184
ag668
ag428
ag510
ag546
ag226
ag227
ag501
ag605
ag230
ag1402
ag624
ag179
ag554
ag1725
ag281
ag77
ag186
ag206
ag506
ag507
ag627
ag286
atRp2874
sS'inc:cardiac arrhythmia'
p2875
g3
((lp2876
g173
ag123
ag72
ag203
ag161
ag219
ag299
ag1129
ag250
ag189
ag342
ag1943
ag428
ag343
ag344
atRp2877
sS'inc:hepatic impairment'
p2878
g3
((lp2879
g634
ag610
ag309
ag736
atRp2880
sS'exc:diverticulitis'
p2881
g3
((lp2882
g87
ag806
ag1413
ag503
ag329
ag1257
ag267
ag616
ag270
ag205
ag508
ag1177
ag188
ag313
ag1284
ag140
ag264
ag601
ag1176
ag551
ag1277
atRp2883
sS'exc:instability'
p2884
g3
((lp2885
g22
ag429
ag615
ag796
ag998
ag1258
ag427
ag782
ag181
ag533
ag340
ag1374
ag706
ag1001
ag904
ag1441
ag538
ag905
ag661
ag75
atRp2886
sS'inc:kidney diseases'
p2887
g3
((lp2888
g588
ag290
ag106
ag581
ag203
ag170
ag344
ag715
ag163
ag309
ag92
ag220
ag169
ag343
ag225
ag583
ag72
ag295
ag176
ag179
ag1125
ag175
ag277
ag580
ag98
ag400
atRp2889
sS'inc:cardiomyopathies'
p2890
g3
((lp2891
g149
ag72
ag558
ag123
ag173
ag299
ag189
ag530
ag566
ag344
atRp2892
sS'inc:pneumonia viral'
p2893
g3
((lp2894
g1433
ag295
ag132
ag973
ag158
ag160
ag46
ag258
ag1436
ag984
ag221
ag881
ag1441
ag549
ag321
ag235
ag233
ag261
ag448
ag1378
ag720
ag34
ag1429
atRp2895
sS'exc:nasopharynx'
p2896
g3
((lp2897
g1496
ag299
ag1387
ag2201
ag1102
ag2135
ag415
ag1494
ag604
ag540
ag908
ag840
ag583
ag173
ag372
ag1244
ag123
ag627
ag98
ag1510
ag721
ag722
atRp2898
sS'inc:coronavirus infections'
p2899
g3
((lp2900
g1458
ag739
ag200
ag295
ag151
ag444
ag741
ag59
ag457
ag1452
ag548
ag1422
ag872
ag1351
ag1454
ag445
ag1404
ag340
ag1406
ag371
ag29
ag448
ag182
ag1916
ag2269
ag131
ag2027
atRp2901
sS'inc:septic shock'
p2902
g3
((lp2903
g291
ag153
ag497
ag294
ag285
ag241
ag621
ag297
ag249
ag671
ag245
ag168
ag109
ag279
ag566
ag243
atRp2904
sS'exc:hepatitis c virus'
p2905
g3
((lp2906
g5
ag1788
ag1789
ag12
ag208
ag602
ag1438
ag1270
ag604
ag1164
ag743
ag115
ag1790
ag152
ag607
ag608
ag237
ag610
ag735
ag97
ag1177
ag1445
atRp2907
sS'exc:fluid overload'
p2908
g3
((lp2909
g150
ag147
ag652
ag291
ag833
ag535
ag198
ag2060
ag553
ag2136
ag871
ag539
ag668
ag227
ag1465
ag154
ag555
ag281
ag627
ag286
ag465
ag462
atRp2910
sS'exc:bleeding tendency'
p2911
g3
((lp2912
g641
ag349
ag1326
ag631
ag533
ag57
ag140
ag208
ag61
ag303
ag541
ag167
ag1477
ag681
ag1596
ag25
ag937
ag573
ag888
ag602
ag77
ag99
atRp2913
sS'exc:liver cirrhosis'
p2914
g3
((lp2915
g1487
ag237
ag1552
ag993
ag58
ag457
ag77
ag369
ag992
ag1703
ag728
ag1341
ag566
ag243
ag657
ag278
ag537
ag810
atRp2916
sS'exc:diabetes'
p2917
g3
((lp2918
g103
ag1710
ag1458
ag82
ag524
ag1956
ag1233
ag653
ag631
ag14
ag857
ag536
ag98
ag1212
ag406
ag139
ag24
ag140
ag392
ag1591
ag426
ag796
ag602
ag595
ag474
ag837
ag1633
ag380
ag1703
ag92
ag311
ag362
ag48
ag633
ag954
ag634
ag20
ag398
ag178
ag1230
ag637
ag403
ag1140
ag384
ag117
ag843
ag26
ag1636
ag568
ag96
ag1426
ag1185
ag640
ag30
ag1244
ag2286
ag130
ag89
ag1059
ag642
ag17
ag611
ag35
ag382
ag904
ag641
atRp2919
sS'inc:hematologic neoplasms'
p2920
g3
((lp2921
g2072
ag316
ag227
ag1482
ag857
ag1145
ag189
ag1387
ag1260
ag312
ag1483
atRp2922
sS'exc:respiratory failure'
p2923
g3
((lp2924
g880
ag1018
ag503
ag119
ag752
ag351
ag911
ag423
ag1269
ag728
ag508
ag973
ag154
ag59
ag252
ag37
ag443
ag537
ag706
ag502
ag553
ag227
ag504
ag164
ag1737
ag1351
ag539
ag797
ag745
ag222
ag263
ag884
ag668
ag215
ag1593
ag132
ag1407
ag71
ag908
ag549
ag843
ag458
ag1041
ag1406
ag96
ag589
ag372
ag462
ag29
ag855
ag179
ag323
ag714
ag1426
ag236
ag463
ag833
ag493
ag574
ag122
ag131
ag184
ag1523
ag627
ag1014
ag972
ag721
ag1239
atRp2925
sS'inc:respiratory distress'
p2926
g3
((lp2927
g47
ag204
ag107
ag1450
ag240
ag109
ag537
ag947
ag303
ag161
ag181
ag627
ag314
ag428
ag1138
ag121
ag172
ag589
ag462
ag119
ag278
ag327
ag437
ag122
ag123
ag1135
ag626
ag272
ag1366
ag408
ag446
ag794
atRp2928
sS'exc:antiviral agents'
p2929
g3
((lp2930
g648
ag1189
ag248
ag653
ag132
ag833
ag834
ag287
ag128
ag1417
ag601
ag1277
ag1344
ag17
ag332
ag395
ag309
ag1476
ag604
ag396
ag544
ag545
ag1153
ag1971
ag547
ag403
ag1963
ag475
ag175
ag953
ag551
ag1656
ag1259
ag261
ag1926
ag312
ag1741
ag1471
ag1616
ag642
ag380
ag582
ag559
ag1014
ag189
ag409
ag1744
ag1511
atRp2931
sS'exc:heart failure'
p2932
g3
((lp2933
g150
ag147
ag1414
ag9
ag833
ag728
ag729
ag390
ag156
ag87
ag1221
ag795
ag90
ag607
ag166
ag312
ag668
ag657
ag636
ag215
ag403
ag572
ag638
ag1586
ag1741
ag956
ag808
ag407
ag1356
ag286
ag199
ag12
ag209
ag59
ag60
ag61
ag227
ag18
ag595
ag539
ag744
ag397
ag1739
ag93
ag380
ag560
ag27
ag461
ag627
ag243
ag5
ag963
ag832
ag836
ag140
ag443
ag15
ag338
ag656
ag106
ag871
ag840
ag20
ag1113
ag681
ag237
ag270
ag19
ag136
ag276
ag1185
ag2293
ag281
ag1152
ag97
ag33
ag34
ag331
ag844
ag767
ag615
ag291
ag292
ag831
ag132
ag296
ag834
ag287
ag1073
ag392
ag537
ag553
ag796
ag473
ag332
ag601
ag685
ag510
ag22
ag36
ag25
ag369
ag340
ag462
ag1075
ag554
ag1598
ag77
ag1195
ag575
ag904
ag306
atRp2934
sS'inc:liver cirrhosis'
p2935
g3
((lp2936
g440
ag583
ag430
ag176
ag597
ag333
ag1882
atRp2937
sS'inc:myasthenia gravis'
p2938
g3
((lp2939
g341
ag344
atRp2940
sS'exc:infarction'
p2941
g3
((lp2942
g389
ag8
ag349
ag9
ag631
ag12
ag58
ag155
ag566
ag60
ag87
ag567
ag548
ag17
ag361
ag416
ag167
ag953
ag10
ag24
ag403
ag369
ag16
ag19
ag27
ag30
ag574
ag611
ag34
ag35
ag382
ag988
atRp2943
sS'inc:infarction'
p2944
g3
((lp2945
g227
ag473
ag219
ag394
ag315
ag72
ag581
ag203
ag296
ag1985
ag956
ag1129
ag161
ag428
ag189
atRp2946
sS'inc:lopinavir / ritonavir'
p2947
g3
((lp2948
g588
ag548
ag591
ag47
ag416
ag176
ag1366
ag986
ag277
ag343
atRp2949
sS'inc:mental disorders'
p2950
g3
((lp2951
g463
ag1446
ag1528
ag1641
ag227
ag516
ag417
ag416
ag418
ag176
ag663
ag1014
ag2122
ag552
ag414
ag1964
ag374
ag823
ag1971
ag189
atRp2952
sS'exc:mechanical ventilation'
p2953
g3
((lp2954
g2103
ag146
ag1413
ag458
ag1355
ag1415
ag833
ag179
ag706
ag76
ag154
ag155
ag1303
ag1277
ag906
ag505
ag881
ag67
ag668
ag657
ag24
ag410
ag268
ag177
ag589
ag964
ag1586
ag1260
ag714
ag2278
ag1742
ag183
ag186
ag1383
ag188
ag1014
ag189
ag737
ag1239
ag196
ag2094
ag793
ag2331
ag1735
ag1232
ag208
ag1435
ag1493
ag435
ag907
ag1988
ag595
ag744
ag745
ag622
ag222
ag400
ag25
ag1404
ag1258
ag605
ag1405
ag560
ag230
ag119
ag1442
ag1027
ag555
ag239
ag236
ag237
ag750
ag913
ag439
ag131
ag720
ag1362
ag576
ag129
ag753
ag562
ag880
ag350
ag1956
ag1023
ag535
ag59
ag16
ag502
ag548
ag1523
ag603
ag1351
ag540
ag66
ag269
ag544
ag263
ag1153
ag1257
ag782
ag266
ag1407
ag978
ag806
ag1592
ag19
ag1507
ag275
ag1125
ag1176
ag122
ag428
ag525
ag224
ag1145
ag1968
ag2255
ag289
ag677
ag248
ag290
ag351
ag653
ag1593
ag1845
ag132
ag287
ag601
ag302
ag769
ag1571
ag799
ag64
ag309
ag1177
ag545
ag314
ag510
ag1036
ag547
ag317
ag1440
ag369
ag549
ag461
ag1406
ag477
ag1462
ag463
ag328
ag1899
ag610
ag331
ag1599
ag507
ag551
ag1084
ag1600
ag1284
ag333
ag2303
ag1511
atRp2955
sS'inc:home oxygen'
p2956
g3
((lp2957
g283
ag2206
ag290
ag256
ag274
atRp2958
sS'exc:drug abuse'
p2959
g3
((lp2960
g92
ag641
ag24
ag57
ag351
ag64
ag94
ag97
ag270
ag95
ag98
ag929
ag96
ag86
atRp2961
sS'exc:chronic kidney diseases'
p2962
g3
((lp2963
g389
ag145
ag146
ag218
ag792
ag739
ag793
ag1113
ag1736
ag1703
ag2074
ag1985
ag353
ag456
ag2379
ag139
ag615
ag140
ag709
ag253
ag156
ag977
ag548
ag656
ag239
ag380
ag130
ag1500
ag134
ag595
ag744
ag839
ag19
ag49
ag1795
ag514
ag57
ag491
ag1963
ag457
ag682
ag174
ag230
ag340
ag1175
ag372
ag1259
ag672
ag554
ag111
ag278
ag1009
ag461
ag956
ag807
ag837
ag296
ag407
ag846
ag333
ag841
ag849
ag810
atRp2964
sS'maximum age = 120'
p2965
g3
((lp2966
g1189
ag1428
ag475
ag2328
ag2076
ag2216
ag632
atRp2967
sS'exc:immunodeficiency virus'
p2968
g3
((lp2969
g5
ag81
ag1042
ag1020
ag858
ag1341
ag208
ag860
ag853
ag602
ag332
ag141
ag1344
ag859
ag25
ag560
ag340
ag1259
ag96
ag607
ag608
ag610
ag378
ag1346
ag77
ag97
ag189
ag1347
ag38
atRp2970
sS'exc:anosmia'
p2971
g3
((lp2972
g42
ag402
ag62
ag540
ag283
ag1519
ag641
ag1099
ag797
ag1966
ag606
ag1202
ag2266
ag1708
ag49
ag914
ag2201
atRp2973
sS'inc:fibrosis'
p2974
g3
((lp2975
g315
ag260
ag218
ag47
ag292
ag296
ag271
ag298
ag1118
ag322
atRp2976
sS'exc:azithromycin'
p2977
g3
((lp2978
g1487
ag1413
ag82
ag1735
ag442
ag1661
ag834
ag596
ag536
ag1212
ag156
ag794
ag15
ag977
ag606
ag597
ag1563
ag393
ag685
ag814
ag18
ag1476
ag1278
ag838
ag798
ag397
ag840
ag1153
ag1739
ag1818
ag1795
ag267
ag403
ag843
ag19
ag232
ag1999
ag2202
ag660
ag111
ag847
ag1471
ag557
ag2035
ag803
ag1743
ag409
ag193
atRp2979
sS'maximum age = 43'
p2980
g3
((lp2981
g2533
atRp2982
sS'maximum age = 40'
p2983
g3
((lp2984
g414
ag2212
ag1686
ag416
ag418
ag643
ag2209
ag2363
ag2357
ag417
atRp2985
sS'exc:macrolides'
p2986
g3
((lp2987
g389
ag2223
ag1413
ag795
ag403
ag90
ag1818
ag1471
ag1269
ag840
ag814
ag397
ag953
ag156
ag1739
ag763
ag794
ag1795
ag847
atRp2988
sS'maximum age = 45'
p2989
g3
((lp2990
g1791
ag2532
ag449
ag2526
ag2528
ag1799
ag2537
ag338
ag357
ag2531
ag2523
atRp2991
sS'inc:fibrillations'
p2992
g3
((lp2993
g204
ag189
ag62
ag203
ag175
atRp2994
sS'maximum age = 48'
p2995
g3
((lp2996
g2507
atRp2997
sS'exc:tomography'
p2998
g3
((lp2999
g227
ag793
ag560
ag736
ag312
ag988
atRp3000
sS'inc:pulmonary hypertension'
p3001
g3
((lp3002
g149
ag218
ag227
ag283
ag123
ag204
ag296
ag322
ag156
ag187
atRp3003
sS'exc:mycoses'
p3004
g3
((lp3005
g880
ag1355
ag9
ag655
ag250
ag768
ag435
ag1455
ag90
ag1164
ag220
ag544
ag545
ag657
ag713
ag93
ag978
ag369
ag270
ag460
ag715
ag1176
ag662
ag915
ag1968
ag289
ag562
atRp3006
sS'inc:cardiovascular diseases'
p3007
g3
((lp3008
g1206
ag653
ag203
ag247
ag1129
ag823
ag253
ag15
ag218
ag278
ag92
ag590
ag312
ag72
ag175
ag268
ag1402
ag277
ag169
ag176
ag956
ag33
ag2016
ag98
ag333
ag914
atRp3009
sS'inc:protection'
p3010
g3
((lp3011
g7
ag1781
ag2119
ag240
ag168
ag1051
atRp3012
sS'inc:antiviral agents'
p3013
g3
((lp3014
g587
ag1192
ag290
ag380
ag378
ag277
ag948
ag987
ag663
ag1014
ag140
ag591
ag443
ag1084
atRp3015
sS'exc:coinfection'
p3016
g3
((lp3017
g145
ag1957
ag767
ag2308
ag2094
ag1020
ag457
ag172
ag240
ag310
ag546
ag1356
ag462
ag419
ag1027
ag810
atRp3018
sS'exc:life expectancy'
p3019
g3
((lp3020
g1487
ag1206
ag198
ag254
ag707
ag251
ag566
ag979
ag391
ag1028
ag1518
ag140
ag984
ag2361
ag48
ag67
ag2227
ag400
ag1845
ag2012
ag802
ag1997
ag372
ag2382
ag154
ag325
ag181
ag912
ag180
ag2101
ag331
ag450
ag2024
ag158
ag456
atRp3021
sS'minimum age = 62'
p3022
g3
((lp3023
g1290
atRp3024
sS'exc:anaphylaxis'
p3025
g3
((lp3026
g652
ag57
ag671
ag1342
ag198
ag2060
ag985
ag602
ag2136
ag1345
ag673
ag170
ag23
ag560
ag1866
ag154
ag1459
ag1176
ag640
ag750
ag1377
ag775
ag641
ag737
ag289
atRp3027
sS'minimum age = 60'
p3028
g3
((lp3029
g1561
ag2096
ag306
ag2381
ag32
ag92
ag12
ag2361
ag794
ag2089
ag2293
ag1138
atRp3030
sS'minimum age = 65'
p3031
g3
((lp3032
g30
ag1189
ag2253
ag2135
ag846
ag1424
ag1636
ag390
ag2125
ag2088
atRp3033
sS'exc:fibrosis'
p3034
g3
((lp3035
g145
ag880
ag22
ag7
ag463
ag1598
ag25
ag444
ag560
ag11
ag83
ag595
ag1402
ag35
ag29
ag37
ag96
ag1343
ag448
atRp3036
sS'exc:pulmonary hypertension'
p3037
g3
((lp3038
g7
ag656
ag71
ag1598
ag361
ag1195
ag423
ag507
ag1075
ag554
ag668
ag601
ag566
ag605
atRp3039
sS'inc:polymerase'
p3040
g3
((lp3041
g2240
ag1399
ag979
ag1277
ag128
ag2202
ag1275
ag1001
ag10
ag800
ag2205
ag551
ag1009
ag1428
ag432
ag559
ag737
ag739
ag1065
ag793
ag741
ag205
ag208
ag209
ag542
ag2211
ag1029
ag2135
ag965
ag1344
ag539
ag224
ag491
ag2137
ag1495
ag231
ag1952
ag119
ag275
ag624
ag1445
ag1994
ag481
ag2388
ag1020
ag2251
ag508
ag1842
ag454
ag199
ag548
ag408
ag395
ag444
ag48
ag1153
ag445
ag1455
ag760
ag2030
ag2109
ag472
ag264
ag122
ag912
ag1346
ag558
ag34
ag288
ag561
ag410
ag248
ag615
ag107
ag2333
ag457
ag1734
ag553
ag2000
ag332
ag309
ag1856
ag627
ag212
ag1895
ag216
ag368
ag319
ag73
ag462
ag530
ag111
ag582
ag575
ag2008
ag1600
ag810
atRp3042
s.