(dp0
(S'exc:alanine'
p1
S'exc:alanine transaminase'
p2
S'exc:transaminases'
p3
S'inc:chest'
p4
tp5
(lp6
(S'exc:aspartate'
p7
F0.25
tp8
as(S'exc:glomerular filtration'
p9
S'exc:kidney'
p10
tp11
(lp12
(S'exc:kidney glomerulus'
p13
F0.7241379310344828
tp14
a(S'exc:glomerular filtration rate'
p15
F0.6307692307692307
tp16
as(S'inc:immunologic deficiency syndromes'
p17
S'inc:malignant neoplasms'
p18
tp19
(lp20
(S'inc:hiv'
p21
F0.29310344827586204
tp22
as(S'exc:hiv'
p23
S'exc:liver'
p24
tp25
(lp26
(S'exc:liver diseases'
p27
F0.20430107526881722
tp28
as(S'exc:alanine transaminase'
p29
S'exc:creatinine'
p30
S'exc:creatinine clearance'
p31
S'exc:transaminases'
p32
tp33
(lp34
(S'exc:alanine'
p35
F0.2786885245901639
tp36
a(S'exc:aspartate'
p37
F0.25
tp38
as(g2
g7
S'exc:aspartate transaminase'
p39
tp40
(lp41
(g1
F0.9016393442622951
tp42
a(g3
F0.7808219178082192
tp43
a(S'exc:bilirubin'
p44
F0.4418604651162791
tp45
a(S'exc:hemoglobin'
p46
F0.36363636363636365
tp47
a(S'exc:creatinine'
p48
F0.2682926829268293
tp49
a(S'exc:serum'
p50
F0.234375
tp51
a(S'inc:polymerase'
p52
F0.20618556701030927
tp53
as(S'exc:hepatitis'
p54
tp55
(lp56
(S'exc:hepatitis c'
p57
F1.0
tp58
a(S'exc:hepatitis b'
p59
F1.0
tp60
a(S'exc:immunodeficiency virus'
p61
F0.5172413793103449
tp62
a(S'exc:immunologic deficiency syndromes'
p63
F0.30158730158730157
tp64
a(S'exc:hiv'
p65
F0.2949640287769784
tp66
a(g9
F0.2777777777777778
tp67
a(g13
F0.25862068965517243
tp68
a(S'exc:liver diseases'
p69
F0.25806451612903225
tp70
as(S'exc:alanine transaminase'
p71
S'exc:aspartate transaminase'
p72
S'inc:chest'
p73
tp74
(lp75
(g7
F0.25
tp76
a(g1
F0.2459016393442623
tp77
a(S'inc:x-ray computed tomography'
p78
F0.22115384615384615
tp79
a(g3
F0.2054794520547945
tp80
as(g30
S'exc:mechanical ventilation'
p81
tp82
(lp83
(g31
F0.3392857142857143
tp84
as(g10
S'inc:pregnancy tests'
p85
tp86
(lp87
(S'inc:pregnancy test negative'
p88
F0.43243243243243246
tp89
as(S'exc:cardiovascular diseases'
p90
tp91
(lp92
(S'exc:diabetes'
p93
F0.25757575757575757
tp94
a(S'exc:hypertensive disease'
p95
F0.24
tp96
as(S'inc:liver'
p97
S'inc:liver diseases'
p98
tp99
(lp100
(S'inc:kidney'
p101
F0.2
tp102
as(g1
S'exc:pharmacologic substance'
p103
tp104
(lp105
(g7
F0.3
tp106
a(g3
F0.273972602739726
tp107
as(g71
g15
g10
tp108
(lp109
(g9
F0.2777777777777778
tp110
a(g13
F0.25862068965517243
tp111
as(S'inc:kidney'
p112
S'inc:lung'
p113
S'inc:lung diseases'
p114
tp115
(lp116
(S'inc:diabetes'
p117
F0.26229508196721313
tp118
as(g9
S'exc:hiv'
p119
g13
tp120
(lp121
(g15
F0.26153846153846155
tp122
as(g71
g15
g10
g13
tp123
(lp124
(g9
F0.2777777777777778
tp125
as(S'exc:heart'
p126
S'exc:heart failure'
p127
S'exc:lung'
p128
S'exc:lung diseases'
p129
tp130
(lp131
(S'exc:lung diseases obstructive'
p132
F0.42105263157894735
tp133
a(S'exc:chronic obstructive airway disease'
p134
F0.26153846153846155
tp135
as(g29
S'exc:finding of platelet count'
p136
g32
tp137
(lp138
(g35
F0.2459016393442623
tp139
as(g128
g129
S'exc:malignant neoplasms'
p140
tp141
(lp142
(g134
F0.23076923076923078
tp143
as(S'inc:respiratory distress syndrome'
p144
tp145
(lp146
(S'inc:acute respiratory distress'
p147
F0.9
tp148
a(S'inc:respiratory distress syndrome adult'
p149
F0.32142857142857145
tp150
as(g119
g10
g13
tp151
(lp152
(g9
F0.2962962962962963
tp153
a(g15
F0.24615384615384617
tp154
as(g134
g126
g127
g129
tp155
(lp156
(g132
F0.39473684210526316
tp157
as(S'exc:dyspnea'
p158
tp159
(lp160
(S'exc:fever'
p161
F0.3626373626373626
tp162
as(g117
g114
S'inc:lung diseases obstructive'
p163
tp164
(lp165
(S'inc:chronic obstructive airway disease'
p166
F0.5517241379310345
tp167
as(g2
g7
S'exc:hiv'
p168
g3
tp169
(lp170
(g1
F0.2786885245901639
tp171
as(S'inc:lung'
p172
S'inc:malignant neoplasms'
p173
tp174
(lp175
(g114
F0.32
tp176
a(g117
F0.29508196721311475
tp177
a(S'inc:hiv'
p178
F0.29310344827586204
tp179
a(S'inc:hypertensive disease'
p180
F0.25862068965517243
tp181
a(g112
F0.24
tp182
as(S'exc:hormonal contraception'
p183
tp184
(lp185
(S'exc:contraceptive methods'
p186
F0.27586206896551724
tp187
as(g1
g39
g4
tp188
(lp189
(g7
F0.25
tp190
a(g3
F0.2054794520547945
tp191
as(g1
g2
g7
S'exc:mechanical ventilation'
p192
tp193
(lp194
(g3
F0.2602739726027397
tp195
as(S'exc:aspartate transaminase'
p196
g30
g32
tp197
(lp198
(g7
F0.36666666666666664
tp199
a(g1
F0.36065573770491804
tp200
a(g31
F0.26785714285714285
tp201
as(S'exc:amiodarone'
p202
S'exc:hydroxychloroquine'
p203
tp204
(lp205
(S'exc:propafenone'
p206
F0.8333333333333334
tp207
as(S'exc:hydroxychloroquine'
p208
g10
S'exc:liver'
p209
tp210
(lp211
(S'exc:retinal diseases'
p212
F0.2328767123287671
tp213
as(S'inc:hypertensive disease'
p214
g114
tp215
(lp216
(g166
F0.5862068965517241
tp217
a(g117
F0.36065573770491804
tp218
as(S'exc:therapeutic immunosuppression'
p219
tp220
(lp221
(S'exc:immunosuppressive agents'
p222
F0.3103448275862069
tp223
a(S'exc:adrenal cortex hormones'
p224
F0.25
tp225
as(g1
g7
S'exc:heart'
p226
tp227
(lp228
(g3
F0.2465753424657534
tp229
as(g7
g39
g192
g3
tp230
(lp231
(g1
F0.3114754098360656
tp232
as(g134
g127
g129
tp233
(lp234
(g132
F0.39473684210526316
tp235
as(g39
g3
tp236
(lp237
(g7
F0.9666666666666667
tp238
a(g1
F0.9180327868852459
tp239
a(g2
F0.42142857142857143
tp240
a(g44
F0.4186046511627907
tp241
a(g46
F0.36363636363636365
tp242
a(g48
F0.2804878048780488
tp243
a(g31
F0.26785714285714285
tp244
a(S'exc:serum'
p245
F0.234375
tp246
a(g52
F0.20618556701030927
tp247
as(g222
g219
tp248
(lp249
(g224
F0.25
tp250
as(g101
S'inc:renal replacement therapy'
p251
tp252
(lp253
(S'inc:kidney replacement procedure'
p254
F1.0
tp255
as(S'exc:oxygen'
p256
g3
tp257
(lp258
(g1
F0.2786885245901639
tp259
a(g7
F0.25
tp260
as(g39
g245
tp261
(lp262
(g7
F0.25
tp263
a(g3
F0.2054794520547945
tp264
as(g50
g3
tp265
(lp266
(g7
F0.25
tp267
as(g134
g126
g127
tp268
(lp269
(g132
F0.39473684210526316
tp270
a(g129
F0.22077922077922077
tp271
as(g10
S'exc:liver'
p272
S'exc:renal dialysis'
p273
tp274
(lp275
(S'exc:chronic kidney diseases'
p276
F0.25396825396825395
tp277
as(g35
g37
g30
tp278
(lp279
(g3
F0.3013698630136986
tp280
a(g31
F0.26785714285714285
tp281
as(g9
g119
g10
tp282
(lp283
(g13
F0.27586206896551724
tp284
a(g15
F0.24615384615384617
tp285
as(g9
g10
g13
S'exc:liver'
p286
tp287
(lp288
(g15
F0.35384615384615387
tp289
as(g117
g163
tp290
(lp291
(g166
F0.5517241379310345
tp292
a(g114
F0.32
tp293
as(g1
g2
g7
g46
tp294
(lp295
(g3
F0.2191780821917808
tp296
as(S'inc:dyspnea'
p297
S'inc:sore to touch'
p298
tp299
(lp300
(S'inc:sore throat'
p301
F0.6764705882352942
tp302
as(g1
g2
g7
g39
S'inc:oxygen'
p303
tp304
(lp305
(g3
F0.2465753424657534
tp306
as(g222
tp307
(lp308
(g219
F0.5806451612903226
tp309
a(g224
F0.5
tp310
a(S'exc:prednisone'
p311
F0.47058823529411764
tp312
a(g63
F0.4444444444444444
tp313
a(S'exc:vaccines'
p314
F0.4418604651162791
tp315
a(S'exc:tuberculosis'
p316
F0.373134328358209
tp317
a(S'exc:hiv'
p318
F0.35251798561151076
tp319
a(S'exc:hepatitis'
p320
F0.2916666666666667
tp321
a(S'exc:investigational new drugs'
p322
F0.25396825396825395
tp323
a(S'exc:extracorporeal membrane oxygenation'
p324
F0.2459016393442623
tp325
a(g140
F0.2436548223350254
tp326
a(S'inc:pregnancy tests'
p327
F0.2261904761904762
tp328
a(S'exc:transplantation'
p329
F0.22535211267605634
tp330
a(S'exc:mechanical ventilation'
p331
F0.22085889570552147
tp332
a(S'inc:infiltration'
p333
F0.21505376344086022
tp334
a(S'exc:pneumonia'
p335
F0.21333333333333335
tp336
a(S'exc:hypertensive disease'
p337
F0.21333333333333335
tp338
a(g3
F0.2054794520547945
tp339
as(g2
g7
g39
g256
g3
tp340
(lp341
(g1
F0.2459016393442623
tp342
as(g126
g127
g129
g132
tp343
(lp344
(g134
F0.23076923076923078
tp345
as(g7
g39
g48
tp346
(lp347
(g1
F0.3442622950819672
tp348
a(g3
F0.3013698630136986
tp349
as(g2
g7
g10
g3
tp350
(lp351
(g1
F0.36065573770491804
tp352
as(S'inc:diabetes'
p353
g173
tp354
(lp355
(g180
F0.3103448275862069
tp356
as(g1
g2
g7
g226
tp357
(lp358
(g3
F0.2465753424657534
tp359
as(g9
g15
g119
tp360
(lp361
(g13
F0.29310344827586204
tp362
as(g1
g2
g44
tp363
(lp364
(g7
F0.3
tp365
a(g3
F0.2602739726027397
tp366
as(g2
S'exc:liver'
p367
g3
tp368
(lp369
(g1
F0.26229508196721313
tp370
a(g7
F0.25
tp371
as(g39
S'inc:pneumonia'
p372
tp373
(lp374
(g2
F0.20714285714285716
tp375
a(g3
F0.2054794520547945
tp376
as(S'inc:inspired fraction of oxygen'
p377
g172
S'inc:oxygen saturation measurement'
p378
tp379
(lp380
(S'inc:arteries'
p381
F0.23255813953488372
tp382
a(S'inc:respiratory rate'
p383
F0.22826086956521738
tp384
as(g126
g273
tp385
(lp386
(g276
F0.25396825396825395
tp387
as(S'exc:angina unstable'
p388
S'exc:myocardial infarction'
p389
S'exc:unstable status'
p390
tp391
(lp392
(S'exc:angina pectoris'
p393
F0.5
tp394
as(g2
g7
g44
g3
tp395
(lp396
(g1
F0.29508196721311475
tp397
as(S'inc:hepatitis'
p398
S'inc:hepatitis b'
p399
tp400
(lp401
(g21
F0.27586206896551724
tp402
as(g3
g303
tp403
(lp404
(g1
F0.32786885245901637
tp405
a(g7
F0.31666666666666665
tp406
as(g9
g13
g286
S'exc:liver diseases'
p407
tp408
(lp409
(g15
F0.24615384615384617
tp410
as(g251
tp411
(lp412
(g254
F1.0
tp413
a(g101
F0.21333333333333335
tp414
as(S'exc:positive pregnancy test'
p415
tp416
(lp417
(S'exc:pregnancy tests'
p418
F0.4444444444444444
tp419
as(g9
g226
g10
g13
tp420
(lp421
(g15
F0.3076923076923077
tp422
as(S'inc:dyspnea'
p423
g377
tp424
(lp425
(g381
F0.23255813953488372
tp426
a(g383
F0.21739130434782608
tp427
as(S'exc:hepatitis'
p428
S'exc:hiv'
p429
g61
tp430
(lp431
(S'exc:immunologic deficiency syndromes'
p432
F0.23809523809523808
tp433
as(g1
g2
g39
g256
tp434
(lp435
(g7
F0.25
tp436
a(g3
F0.2054794520547945
tp437
as(g35
g29
g30
tp438
(lp439
(g7
F0.36666666666666664
tp440
a(g3
F0.3287671232876712
tp441
a(g31
F0.30357142857142855
tp442
as(g208
S'exc:medical contraindication'
p443
tp444
(lp445
(g212
F0.2054794520547945
tp446
as(g126
g10
S'exc:liver'
p447
S'exc:liver diseases'
p448
tp449
(lp450
(S'exc:kidney diseases'
p451
F0.21428571428571427
tp452
as(g7
g39
g52
tp453
(lp454
(g1
F0.32786885245901637
tp455
a(g3
F0.273972602739726
tp456
as(S'exc:pneumonia'
p457
tp458
(lp459
(S'exc:respiratory failure'
p460
F0.23529411764705882
tp461
as(S'inc:heart failure'
p462
g172
tp463
(lp464
(S'inc:heart'
p465
F0.22
tp466
as(g1
g2
g39
g3
g303
tp467
(lp468
(g7
F0.3
tp469
as(g39
g3
g303
tp470
(lp471
(g7
F0.3
tp472
a(g1
F0.29508196721311475
tp473
as(S'exc:cardiac arrhythmia'
p474
tp475
(lp476
(S'exc:ventricular arrhythmia'
p477
F1.0
tp478
a(g393
F0.5
tp479
a(S'exc:congestive heart failure'
p480
F0.3409090909090909
tp481
a(S'exc:myocardial infarction'
p482
F0.34
tp483
a(S'exc:heart diseases'
p484
F0.33962264150943394
tp485
a(S'exc:retinal diseases'
p486
F0.3150684931506849
tp487
a(g203
F0.2733812949640288
tp488
a(S'exc:chloroquine'
p489
F0.2716049382716049
tp490
a(g126
F0.22556390977443608
tp491
a(S'exc:hepatic'
p492
F0.2191780821917808
tp493
as(g2
g3
g303
tp494
(lp495
(g1
F0.32786885245901637
tp496
a(g7
F0.31666666666666665
tp497
as(g2
g168
g3
tp498
(lp499
(g7
F0.3
tp500
a(g1
F0.2786885245901639
tp501
as(g134
g128
g129
tp502
(lp503
(g132
F0.9736842105263158
tp504
a(S'exc:asthma'
p505
F0.3125
tp506
as(g7
g39
g256
tp507
(lp508
(g1
F0.2459016393442623
tp509
a(g3
F0.2054794520547945
tp510
as(S'exc:pharmacologic substance'
p511
S'inc:chest'
p512
tp513
(lp514
(g322
F0.25396825396825395
tp515
as(S'inc:heart'
p516
tp517
(lp518
(S'inc:heart diseases'
p519
F1.0
tp520
a(g462
F0.972972972972973
tp521
a(S'inc:congestive heart failure'
p522
F0.9375
tp523
a(S'inc:therapeutic immunosuppression'
p524
F0.6521739130434783
tp525
a(g180
F0.5862068965517241
tp526
a(g166
F0.5862068965517241
tp527
a(g98
F0.5333333333333333
tp528
a(g112
F0.52
tp529
a(g117
F0.4918032786885246
tp530
a(g114
F0.46
tp531
a(S'inc:liver'
p532
F0.44
tp533
a(S'inc:transplantation'
p534
F0.3953488372093023
tp535
a(S'inc:pharmacologic substance'
p536
F0.3157894736842105
tp537
a(g381
F0.313953488372093
tp538
a(g178
F0.29310344827586204
tp539
a(S'inc:body mass index'
p540
F0.26666666666666666
tp541
a(g18
F0.2553191489361702
tp542
a(S'inc:contraceptive methods'
p543
F0.25
tp544
a(g172
F0.2222222222222222
tp545
as(g13
g286
tp546
(lp547
(g9
F0.5185185185185185
tp548
a(g15
F0.4
tp549
a(g407
F0.20430107526881722
tp550
as(g7
g3
g52
tp551
(lp552
(g1
F0.32786885245901637
tp553
as(S'inc:kidney diseases'
p554
tp555
(lp556
(g112
F0.32
tp557
as(g1
g2
g39
g44
g3
tp558
(lp559
(g7
F0.2833333333333333
tp560
as(g2
g7
g3
g52
tp561
(lp562
(g1
F0.32786885245901637
tp563
as(g1
g2
g52
tp564
(lp565
(g7
F0.3333333333333333
tp566
a(g3
F0.2876712328767123
tp567
as(g9
g54
tp568
(lp569
(g13
F0.25862068965517243
tp570
as(g7
g39
g4
tp571
(lp572
(g1
F0.2459016393442623
tp573
a(g3
F0.2054794520547945
tp574
as(g543
g88
tp575
(lp576
(g85
F0.27380952380952384
tp577
as(g428
g432
tp578
(lp579
(g61
F0.5172413793103449
tp580
as(S'inc:inspired fraction of oxygen'
p581
g144
tp582
(lp583
(g147
F0.5
tp584
as(g134
tp585
(lp586
(g132
F0.9736842105263158
tp587
a(g505
F0.5416666666666666
tp588
a(g129
F0.5194805194805194
tp589
a(g128
F0.23300970873786409
tp590
a(g337
F0.22666666666666666
tp591
as(g1
g7
g39
g256
tp592
(lp593
(g3
F0.2054794520547945
tp594
as(g29
g196
g31
tp595
(lp596
(g30
F0.2682926829268293
tp597
a(g35
F0.2459016393442623
tp598
a(g32
F0.2054794520547945
tp599
as(g65
S'exc:pharmacologic substance'
p600
tp601
(lp602
(g320
F0.2222222222222222
tp603
as(g57
g65
tp604
(lp605
(g59
F0.39473684210526316
tp606
a(g320
F0.25
tp607
as(g37
g30
g31
g32
tp608
(lp609
(g35
F0.2459016393442623
tp610
as(g1
g2
g103
g3
tp611
(lp612
(g7
F0.3
tp613
as(g71
g72
g9
tp614
(lp615
(g13
F0.27586206896551724
tp616
a(g15
F0.23076923076923078
tp617
as(g465
g98
tp618
(lp619
(g97
F0.3
tp620
as(g2
g7
g39
g3
tp621
(lp622
(g1
F0.9016393442622951
tp623
a(g44
F0.4186046511627907
tp624
a(g46
F0.36363636363636365
tp625
a(g48
F0.2682926829268293
tp626
a(g50
F0.234375
tp627
a(g52
F0.20618556701030927
tp628
as(S'exc:cirrhosis'
p629
g10
tp630
(lp631
(g451
F0.22857142857142856
tp632
as(g377
g172
tp633
(lp634
(g381
F0.38372093023255816
tp635
a(g333
F0.34408602150537637
tp636
a(g383
F0.2826086956521739
tp637
a(S'inc:oxygen saturation measurement'
p638
F0.2595419847328244
tp639
a(S'inc:respiratory failure'
p640
F0.2413793103448276
tp641
as(g2
g39
g303
tp642
(lp643
(g7
F0.31666666666666665
tp644
a(g1
F0.29508196721311475
tp645
a(g3
F0.2465753424657534
tp646
as(g7
g303
tp647
(lp648
(g1
F0.3114754098360656
tp649
a(g3
F0.2602739726027397
tp650
as(g226
g140
tp651
(lp652
(g480
F0.4318181818181818
tp653
a(g484
F0.33962264150943394
tp654
a(S'exc:heart failure'
p655
F0.3125
tp656
a(g63
F0.2698412698412698
tp657
a(g329
F0.2676056338028169
tp658
a(g129
F0.24675324675324675
tp659
a(S'exc:cardiac arrhythmia'
p660
F0.2328767123287671
tp661
a(g318
F0.20863309352517986
tp662
a(g320
F0.20833333333333334
tp663
as(g2
g39
g46
g3
tp664
(lp665
(g7
F0.26666666666666666
tp666
a(g1
F0.26229508196721313
tp667
as(g1
g372
tp668
(lp669
(g3
F0.2054794520547945
tp670
as(S'inc:fever'
p671
g298
tp672
(lp673
(g301
F0.8235294117647058
tp674
a(S'inc:headache'
p675
F0.5666666666666667
tp676
a(S'inc:myalgia'
p677
F0.45714285714285713
tp678
as(g581
g149
tp679
(lp680
(g144
F0.5555555555555556
tp681
a(g147
F0.5
tp682
as(g126
g129
g132
tp683
(lp684
(g134
F0.3230769230769231
tp685
as(g31
g10
tp686
(lp687
(g30
F0.34146341463414637
tp688
as(g484
tp689
(lp690
(S'exc:cardiac arrhythmia'
p691
F0.2465753424657534
tp692
as(g381
tp693
(lp694
(g378
F0.32061068702290074
tp695
a(g377
F0.3103448275862069
tp696
a(g180
F0.3103448275862069
tp697
a(S'inc:respiratory rate'
p698
F0.29347826086956524
tp699
a(g465
F0.27
tp700
a(S'inc:infiltration'
p701
F0.24731182795698925
tp702
a(g117
F0.2459016393442623
tp703
a(S'inc:respiratory failure'
p704
F0.22988505747126436
tp705
a(g112
F0.22666666666666666
tp706
a(g423
F0.22413793103448276
tp707
a(g172
F0.2222222222222222
tp708
a(g149
F0.21428571428571427
tp709
a(g335
F0.2
tp710
as(g477
tp711
(lp712
(S'exc:cardiac arrhythmia'
p713
F0.2328767123287671
tp714
as(g276
g10
tp715
(lp716
(g273
F0.43956043956043955
tp717
a(S'exc:kidney diseases'
p718
F0.2714285714285714
tp719
a(S'exc:retinal diseases'
p720
F0.2054794520547945
tp721
as(g15
g10
g13
S'exc:renal dialysis'
p722
tp723
(lp724
(g9
F0.2777777777777778
tp725
as(g701
g378
tp726
(lp727
(g381
F0.20930232558139536
tp728
as(S'exc:azithromycin'
p729
S'exc:hydroxychloroquine'
p730
tp731
(lp732
(S'exc:chloroquine'
p733
F0.25925925925925924
tp734
a(S'exc:retinal diseases'
p735
F0.2191780821917808
tp736
as(g35
g31
g32
tp737
(lp738
(g37
F0.25
tp739
a(g30
F0.2073170731707317
tp740
as(g166
g117
tp741
(lp742
(g163
F0.8888888888888888
tp743
a(g114
F0.34
tp744
a(g214
F0.27586206896551724
tp745
as(g61
g432
tp746
(lp747
(g429
F0.20863309352517986
tp748
a(g428
F0.20833333333333334
tp749
as(g1
g39
g303
tp750
(lp751
(g7
F0.3
tp752
a(g3
F0.2465753424657534
tp753
as(g15
g10
g722
tp754
(lp755
(g9
F0.2777777777777778
tp756
a(g13
F0.25862068965517243
tp757
as(g29
g196
g30
g31
g32
tp758
(lp759
(g35
F0.2459016393442623
tp760
as(g9
g119
g10
g13
tp761
(lp762
(g15
F0.24615384615384617
tp763
as(g7
g103
g3
tp764
(lp765
(g1
F0.29508196721311475
tp766
as(g2
g39
g367
g3
tp767
(lp768
(g7
F0.25
tp769
as(g2
g39
g245
tp770
(lp771
(g7
F0.25
tp772
a(g3
F0.2054794520547945
tp773
as(g2
g7
g367
tp774
(lp775
(g3
F0.2054794520547945
tp776
as(g398
tp777
(lp778
(g399
F0.75
tp779
a(S'inc:hepatitis c'
p780
F0.7272727272727273
tp781
a(g21
F0.29310344827586204
tp782
as(g57
tp783
(lp784
(g59
F0.4473684210526316
tp785
a(g320
F0.3055555555555556
tp786
as(g1
g2
g39
g3
g52
tp787
(lp788
(g7
F0.3333333333333333
tp789
as(g126
g128
S'exc:malignant neoplasms'
p790
tp791
(lp792
(g129
F0.24675324675324675
tp793
as(g59
g65
tp794
(lp795
(g57
F0.6818181818181818
tp796
a(g428
F0.3472222222222222
tp797
as(S'inc:ferritin'
p798
tp799
(lp800
(S'inc:fibrin fragment d'
p801
F0.5
tp802
as(g2
g7
g103
g3
tp803
(lp804
(g1
F0.29508196721311475
tp805
as(g701
g377
g172
tp806
(lp807
(g381
F0.20930232558139536
tp808
as(g677
g301
tp809
(lp810
(g298
F0.5151515151515151
tp811
a(g675
F0.5
tp812
as(g801
tp813
(lp814
(g798
F0.5
tp815
as(g31
g367
tp816
(lp817
(g30
F0.2073170731707317
tp818
as(S'exc:lung diseases'
p819
tp820
(lp821
(g132
F1.0
tp822
a(g134
F0.6153846153846154
tp823
a(g505
F0.375
tp824
a(g128
F0.3446601941747573
tp825
a(g127
F0.21428571428571427
tp826
a(g337
F0.2
tp827
as(g117
g214
g113
tp828
(lp829
(g166
F0.5172413793103449
tp830
a(g114
F0.42
tp831
as(g713
S'exc:hydroxychloroquine'
p832
tp833
(lp834
(g477
F0.8823529411764706
tp835
a(g486
F0.273972602739726
tp836
a(g489
F0.2222222222222222
tp837
as(g39
g192
g3
tp838
(lp839
(g1
F0.32786885245901637
tp840
a(g7
F0.31666666666666665
tp841
as(g3
tp842
(lp843
(g1
F1.0
tp844
a(g7
F0.9833333333333333
tp845
a(g44
F0.4883720930232558
tp846
a(g2
F0.4642857142857143
tp847
a(g39
F0.4411764705882353
tp848
a(g136
F0.40476190476190477
tp849
a(g46
F0.36363636363636365
tp850
a(g48
F0.32926829268292684
tp851
a(g31
F0.30357142857142855
tp852
a(g245
F0.265625
tp853
a(g316
F0.2537313432835821
tp854
a(g52
F0.2268041237113402
tp855
as(g465
g18
tp856
(lp857
(g112
F0.21333333333333335
tp858
as(g2
g103
g3
tp859
(lp860
(g1
F0.32786885245901637
tp861
a(g7
F0.3
tp862
as(g35
g37
g31
tp863
(lp864
(g32
F0.2054794520547945
tp865
as(g536
tp866
(lp867
(S'inc:ethanol'
p868
F0.85
tp869
a(g178
F0.3275862068965517
tp870
a(S'inc:contraceptive methods'
p871
F0.28
tp872
a(g112
F0.25333333333333335
tp873
a(g465
F0.24
tp874
a(g327
F0.21428571428571427
tp875
as(g2
g39
g256
tp876
(lp877
(g7
F0.26666666666666666
tp878
a(g1
F0.2459016393442623
tp879
a(g3
F0.2054794520547945
tp880
as(g134
g132
tp881
(lp882
(g129
F0.4805194805194805
tp883
as(g126
S'exc:heart failure'
p884
g10
tp885
(lp886
(g451
F0.24285714285714285
tp887
a(g276
F0.23809523809523808
tp888
as(g671
g301
tp889
(lp890
(g298
F0.8484848484848485
tp891
a(g675
F0.5666666666666667
tp892
a(g677
F0.45714285714285713
tp893
as(g117
g465
tp894
(lp895
(g462
F0.40540540540540543
tp896
a(g180
F0.3620689655172414
tp897
a(g114
F0.36
tp898
as(g429
g61
S'exc:malignant neoplasms'
p899
tp900
(lp901
(g432
F0.2698412698412698
tp902
as(g388
tp903
(lp904
(g393
F0.7058823529411765
tp905
a(g390
F0.375
tp906
a(g389
F0.34
tp907
as(g15
g13
g722
tp908
(lp909
(g9
F0.2777777777777778
tp910
as(g1
g2
g3
g52
tp911
(lp912
(g7
F0.3333333333333333
tp913
as(g9
g286
tp914
(lp915
(g13
F0.4827586206896552
tp916
a(g15
F0.4
tp917
as(g378
tp918
(lp919
(S'inc:capillary vessel'
p920
F0.9473684210526315
tp921
a(S'inc:pulse rate'
p922
F0.6956521739130435
tp923
a(g383
F0.5217391304347826
tp924
a(g381
F0.4883720930232558
tp925
a(S'inc:oxygen'
p926
F0.365
tp927
a(g324
F0.36065573770491804
tp928
a(S'inc:dyspnea'
p929
F0.33620689655172414
tp930
a(g377
F0.3275862068965517
tp931
a(g333
F0.3118279569892473
tp932
a(g640
F0.28735632183908044
tp933
a(S'inc:lung'
p934
F0.27053140096618356
tp935
a(S'inc:polymerase'
p936
F0.2268041237113402
tp937
a(S'exc:mechanical ventilation'
p938
F0.22085889570552147
tp939
a(S'inc:pneumonia'
p940
F0.20614035087719298
tp941
a(g3
F0.2054794520547945
tp942
a(g335
F0.2
tp943
a(S'exc:alanine transaminase'
p944
F0.2
tp945
as(g224
tp946
(lp947
(g311
F0.5588235294117647
tp948
a(g222
F0.3448275862068966
tp949
a(g219
F0.3225806451612903
tp950
a(g63
F0.30158730158730157
tp951
a(g316
F0.26865671641791045
tp952
a(g318
F0.2014388489208633
tp953
as(S'exc:lung'
p954
g140
tp955
(lp956
(g129
F0.36363636363636365
tp957
a(g134
F0.26153846153846155
tp958
a(g329
F0.23943661971830985
tp959
a(g320
F0.2361111111111111
tp960
a(g337
F0.22666666666666666
tp961
as(S'exc:lopinavir'
p962
tp963
(lp964
(S'exc:lopinavir / ritonavir'
p965
F0.8888888888888888
tp966
as(g178
tp967
(lp968
(S'inc:hepatitis c virus'
p969
F0.8888888888888888
tp970
a(g17
F0.8148148148148148
tp971
a(g398
F0.7391304347826086
tp972
a(g399
F0.7083333333333334
tp973
a(g534
F0.46511627906976744
tp974
a(g532
F0.34
tp975
a(g540
F0.2833333333333333
tp976
a(g18
F0.2553191489361702
tp977
a(S'inc:pharmacologic substance'
p978
F0.25
tp979
a(S'inc:kidney'
p980
F0.21333333333333335
tp981
as(g2
g39
g50
g3
tp982
(lp983
(g7
F0.25
tp984
as(g126
S'exc:oxygen'
p985
tp986
(lp987
(g655
F0.24107142857142858
tp988
a(g129
F0.2077922077922078
tp989
as(g72
g15
g10
g13
tp990
(lp991
(g9
F0.2777777777777778
tp992
as(g1
g39
g10
g3
tp993
(lp994
(g7
F0.35
tp995
as(g7
g39
g3
tp996
(lp997
(g1
F0.9016393442622951
tp998
a(g44
F0.4186046511627907
tp999
a(g2
F0.40714285714285714
tp1000
a(g46
F0.36363636363636365
tp1001
a(g48
F0.2682926829268293
tp1002
a(g50
F0.234375
tp1003
a(g52
F0.20618556701030927
tp1004
as(g117
g113
g163
tp1005
(lp1006
(g166
F0.5517241379310345
tp1007
a(g114
F0.32
tp1008
as(g206
tp1009
(lp1010
(g202
F0.5454545454545454
tp1011
as(S'exc:intubation'
p1012
tp1013
(lp1014
(S'exc:intubation intratracheal'
p1015
F1.0
tp1016
as(g297
g671
g298
tp1017
(lp1018
(g301
F0.6176470588235294
tp1019
as(g7
g39
g10
tp1020
(lp1021
(g1
F0.3442622950819672
tp1022
a(g3
F0.3287671232876712
tp1023
as(g39
g10
g3
tp1024
(lp1025
(g7
F0.4
tp1026
a(g1
F0.3442622950819672
tp1027
as(g2
g39
g192
g3
tp1028
(lp1029
(g1
F0.32786885245901637
tp1030
a(g7
F0.31666666666666665
tp1031
as(g15
g13
S'exc:malignant neoplasms'
p1032
tp1033
(lp1034
(g9
F0.2962962962962963
tp1035
as(g127
g128
g132
tp1036
(lp1037
(g134
F0.23076923076923078
tp1038
a(g129
F0.2077922077922078
tp1039
as(g671
g675
tp1040
(lp1041
(g298
F0.5151515151515151
tp1042
a(g301
F0.5
tp1043
a(g677
F0.4857142857142857
tp1044
as(g1
g2
g44
g3
tp1045
(lp1046
(g7
F0.3
tp1047
as(S'exc:pharmacologic substance'
p1048
tp1049
(lp1050
(g322
F0.8412698412698413
tp1051
a(S'exc:ethanol'
p1052
F0.8181818181818182
tp1053
a(S'exc:substance abuse problem'
p1054
F0.7391304347826086
tp1055
a(g314
F0.46511627906976744
tp1056
a(S'exc:antiviral agents'
p1057
F0.4375
tp1058
a(g415
F0.425
tp1059
a(g59
F0.39473684210526316
tp1060
a(g418
F0.3888888888888889
tp1061
a(g186
F0.3620689655172414
tp1062
a(g245
F0.359375
tp1063
a(g543
F0.35
tp1064
a(g320
F0.3472222222222222
tp1065
a(g224
F0.3375
tp1066
a(g1
F0.32786885245901637
tp1067
a(g324
F0.3114754098360656
tp1068
a(g63
F0.30158730158730157
tp1069
a(g3
F0.3013698630136986
tp1070
a(g660
F0.3013698630136986
tp1071
a(g7
F0.3
tp1072
a(S'exc:arteries'
p1073
F0.296875
tp1074
a(g39
F0.29411764705882354
tp1075
a(g222
F0.29310344827586204
tp1076
a(g158
F0.2753623188405797
tp1077
a(g219
F0.27419354838709675
tp1078
a(g212
F0.273972602739726
tp1079
a(g460
F0.2647058823529412
tp1080
a(g2
F0.2642857142857143
tp1081
a(g161
F0.26373626373626374
tp1082
a(S'exc:diabetes'
p1083
F0.25757575757575757
tp1084
a(g316
F0.2537313432835821
tp1085
a(g335
F0.25333333333333335
tp1086
a(S'exc:unstable status'
p1087
F0.25
tp1088
a(g655
F0.25
tp1089
a(g27
F0.24731182795698925
tp1090
a(g331
F0.24539877300613497
tp1091
a(g208
F0.2446043165467626
tp1092
a(S'exc:hepatic'
p1093
F0.2328767123287671
tp1094
a(g318
F0.2302158273381295
tp1095
a(g383
F0.22826086956521738
tp1096
a(g337
F0.22666666666666666
tp1097
a(g329
F0.22535211267605634
tp1098
a(g447
F0.21714285714285714
tp1099
a(g451
F0.21428571428571427
tp1100
a(g78
F0.21153846153846154
tp1101
a(S'exc:chloroquine'
p1102
F0.20987654320987653
tp1103
a(S'exc:renal dialysis'
p1104
F0.2087912087912088
tp1105
a(g129
F0.2077922077922078
tp1106
a(g790
F0.20304568527918782
tp1107
a(g327
F0.20238095238095238
tp1108
a(g465
F0.2
tp1109
as(g13
g407
tp1110
(lp1111
(g9
F0.37037037037037035
tp1112
a(g15
F0.2923076923076923
tp1113
as(g166
g465
tp1114
(lp1115
(g114
F0.3
tp1116
as(g677
g298
tp1117
(lp1118
(g301
F0.5
tp1119
a(g675
F0.5
tp1120
as(g132
g985
tp1121
(lp1122
(g134
F0.26153846153846155
tp1123
a(g129
F0.23376623376623376
tp1124
as(g127
g132
tp1125
(lp1126
(g134
F0.23076923076923078
tp1127
a(g129
F0.2077922077922078
tp1128
as(g505
g819
tp1129
(lp1130
(S'exc:chronic obstructive airway disease'
p1131
F0.23076923076923078
tp1132
as(S'exc:diverticulitis'
p1133
tp1134
(lp1135
(S'exc:intestines'
p1136
F0.42105263157894735
tp1137
as(g24
S'exc:lung'
p1138
tp1139
(lp1140
(g27
F0.21505376344086022
tp1141
a(g129
F0.2077922077922078
tp1142
as(g1
g7
g39
g192
tp1143
(lp1144
(g3
F0.2602739726027397
tp1145
as(g1
g4
tp1146
(lp1147
(g7
F0.25
tp1148
a(g3
F0.2054794520547945
tp1149
as(g2
g7
g226
tp1150
(lp1151
(g1
F0.29508196721311475
tp1152
a(g3
F0.2602739726027397
tp1153
as(g301
tp1154
(lp1155
(g298
F1.0
tp1156
a(g675
F0.6333333333333333
tp1157
a(g677
F0.4857142857142857
tp1158
a(g671
F0.21705426356589147
tp1159
as(g677
S'inc:nose'
p1160
tp1161
(lp1162
(g675
F0.5333333333333333
tp1163
as(g35
g29
g37
g32
tp1164
(lp1165
(g44
F0.4186046511627907
tp1166
a(g39
F0.40441176470588236
tp1167
a(g46
F0.36363636363636365
tp1168
a(g48
F0.2682926829268293
tp1169
a(g31
F0.26785714285714285
tp1170
a(g52
F0.20618556701030927
tp1171
as(g9
g13
g722
tp1172
(lp1173
(g15
F0.23076923076923078
tp1174
as(g1
g2
g7
g39
g256
tp1175
(lp1176
(g3
F0.2054794520547945
tp1177
as(g48
g3
tp1178
(lp1179
(g1
F0.39344262295081966
tp1180
a(g7
F0.38333333333333336
tp1181
a(g31
F0.30357142857142855
tp1182
as(g1136
tp1183
(lp1184
(S'exc:inflammatory bowel diseases'
p1185
F0.9444444444444444
tp1186
a(g1133
F0.7619047619047619
tp1187
as(g15
g13
g407
tp1188
(lp1189
(g9
F0.35185185185185186
tp1190
as(g2
g7
g3
tp1191
(lp1192
(g1
F0.9180327868852459
tp1193
a(g44
F0.4418604651162791
tp1194
a(g39
F0.41911764705882354
tp1195
a(g46
F0.36363636363636365
tp1196
a(g48
F0.2804878048780488
tp1197
a(g31
F0.26785714285714285
tp1198
a(g50
F0.234375
tp1199
a(g52
F0.20618556701030927
tp1200
as(g196
g30
tp1201
(lp1202
(g31
F0.42857142857142855
tp1203
a(g44
F0.3953488372093023
tp1204
a(g7
F0.36666666666666664
tp1205
a(g1
F0.36065573770491804
tp1206
a(g3
F0.3150684931506849
tp1207
a(g2
F0.24285714285714285
tp1208
as(g126
g447
g448
tp1209
(lp1210
(g451
F0.21428571428571427
tp1211
as(g9
g15
g226
tp1212
(lp1213
(g13
F0.3620689655172414
tp1214
as(g934
g383
tp1215
(lp1216
(g333
F0.22580645161290322
tp1217
a(g378
F0.22137404580152673
tp1218
as(S'exc:glucose-6-phosphate'
p1219
S'exc:retinal diseases'
p1220
tp1221
(lp1222
(S'exc:oxidoreductase'
p1223
F0.4666666666666667
tp1224
as(S'exc:embolism'
p1225
S'exc:lung'
p1226
tp1227
(lp1228
(S'exc:pulmonary embolism'
p1229
F0.72
tp1230
as(g1
g2
g39
g46
tp1231
(lp1232
(g7
F0.26666666666666666
tp1233
a(g3
F0.2191780821917808
tp1234
as(g2
g303
tp1235
(lp1236
(g7
F0.3333333333333333
tp1237
a(g1
F0.32786885245901637
tp1238
a(g39
F0.3088235294117647
tp1239
a(g3
F0.2876712328767123
tp1240
as(g393
g388
g390
tp1241
(lp1242
(g389
F0.34
tp1243
as(S'exc:marrow'
p1244
S'exc:skeletal bone'
p1245
tp1246
(lp1247
(S'exc:bone marrow transplantation'
p1248
F1.0
tp1249
a(S'exc:transplantation'
p1250
F0.2676056338028169
tp1251
as(g129
g985
tp1252
(lp1253
(g132
F0.47368421052631576
tp1254
a(g134
F0.27692307692307694
tp1255
as(g35
g29
g196
g31
tp1256
(lp1257
(g32
F0.2054794520547945
tp1258
as(g7
g3
g303
tp1259
(lp1260
(g1
F0.3114754098360656
tp1261
as(g1
g7
g256
tp1262
(lp1263
(g3
F0.2054794520547945
tp1264
as(g390
tp1265
(lp1266
(g388
F1.0
tp1267
a(g393
F0.7941176470588235
tp1268
a(g482
F0.34
tp1269
as(g2
g39
g52
tp1270
(lp1271
(g7
F0.3333333333333333
tp1272
a(g1
F0.32786885245901637
tp1273
a(g3
F0.273972602739726
tp1274
as(g9
g286
g407
tp1275
(lp1276
(g13
F0.29310344827586204
tp1277
a(g15
F0.24615384615384617
tp1278
as(g7
g46
g3
tp1279
(lp1280
(g1
F0.26229508196721313
tp1281
as(g675
g677
g298
tp1282
(lp1283
(g301
F0.4411764705882353
tp1284
as(g10
S'exc:liver diseases'
p1285
tp1286
(lp1287
(g451
F0.5
tp1288
a(g629
F0.3333333333333333
tp1289
a(g13
F0.3275862068965517
tp1290
a(g9
F0.3148148148148148
tp1291
a(g15
F0.3076923076923077
tp1292
a(g24
F0.29714285714285715
tp1293
a(g1093
F0.2465753424657534
tp1294
a(g320
F0.2222222222222222
tp1295
a(g1102
F0.2222222222222222
tp1296
as(g196
g10
g273
tp1297
(lp1298
(g276
F0.30158730158730157
tp1299
as(g72
g9
tp1300
(lp1301
(g13
F0.3275862068965517
tp1302
a(g15
F0.27692307692307694
tp1303
as(g15
g13
g286
tp1304
(lp1305
(g9
F0.48148148148148145
tp1306
as(g423
g934
g378
tp1307
(lp1308
(g383
F0.20652173913043478
tp1309
a(g333
F0.20430107526881722
tp1310
as(g1
g2
g7
g303
tp1311
(lp1312
(g3
F0.2602739726027397
tp1313
as(g10
g451
tp1314
(lp1315
(g448
F0.3763440860215054
tp1316
a(g629
F0.35555555555555557
tp1317
a(g276
F0.30158730158730157
tp1318
a(g447
F0.2571428571428571
tp1319
a(g486
F0.2191780821917808
tp1320
a(g1093
F0.2054794520547945
tp1321
as(g1
g2
g7
g39
g44
tp1322
(lp1323
(g3
F0.2328767123287671
tp1324
as(g10
g367
tp1325
(lp1326
(g451
F0.6428571428571429
tp1327
a(g27
F0.5591397849462365
tp1328
a(g276
F0.4603174603174603
tp1329
a(g13
F0.4482758620689655
tp1330
a(g9
F0.4444444444444444
tp1331
a(S'exc:liver failure'
p1332
F0.43902439024390244
tp1333
a(g629
F0.4222222222222222
tp1334
a(g15
F0.4
tp1335
a(g1104
F0.38461538461538464
tp1336
a(g212
F0.3150684931506849
tp1337
a(g505
F0.3125
tp1338
a(S'exc:kidney failure'
p1339
F0.2923076923076923
tp1340
a(g329
F0.28169014084507044
tp1341
a(S'exc:lactation'
p1342
F0.2711864406779661
tp1343
a(g39
F0.25
tp1344
a(g1102
F0.24691358024691357
tp1345
a(g320
F0.2361111111111111
tp1346
a(g337
F0.22666666666666666
tp1347
a(g655
F0.22321428571428573
tp1348
a(g318
F0.22302158273381295
tp1349
a(S'exc:creatinine'
p1350
F0.21951219512195122
tp1351
a(g226
F0.21804511278195488
tp1352
a(g2
F0.21428571428571427
tp1353
a(S'exc:hemorrhage'
p1354
F0.20987654320987653
tp1355
a(g660
F0.2054794520547945
tp1356
as(g320
g59
tp1357
(lp1358
(g57
F0.7727272727272727
tp1359
as(g39
S'inc:chest'
p1360
tp1361
(lp1362
(g7
F0.25
tp1363
a(g1
F0.2459016393442623
tp1364
a(g2
F0.22857142857142856
tp1365
a(g78
F0.22115384615384615
tp1366
a(g3
F0.2054794520547945
tp1367
as(g35
g196
g30
g31
tp1368
(lp1369
(g32
F0.2054794520547945
tp1370
as(S'exc:anticoagulation therapy'
p1371
tp1372
(lp1373
(S'exc:hemorrhage'
p1374
F0.24691358024691357
tp1375
as(g9
g15
g10
tp1376
(lp1377
(g13
F0.7068965517241379
tp1378
as(S'exc:pharmacologic substance'
p1379
g1054
tp1380
(lp1381
(S'exc:ethanol'
p1382
F0.36363636363636365
tp1383
as(g2
g7
g192
g3
tp1384
(lp1385
(g1
F0.3114754098360656
tp1386
as(g1
g2
g39
g10
tp1387
(lp1388
(g7
F0.35
tp1389
a(g3
F0.2876712328767123
tp1390
as(g1
g3
g303
tp1391
(lp1392
(g7
F0.31666666666666665
tp1393
as(S'exc:hemorrhage'
p1394
tp1395
(lp1396
(S'exc:bleeding tendency'
p1397
F1.0
tp1398
a(g1371
F0.7692307692307693
tp1399
a(g337
F0.21333333333333335
tp1400
as(g1
g10
tp1401
(lp1402
(g7
F0.36666666666666664
tp1403
a(g3
F0.3013698630136986
tp1404
as(g2
g7
g39
g44
g3
tp1405
(lp1406
(g1
F0.2786885245901639
tp1407
as(g1
g39
g44
g3
tp1408
(lp1409
(g7
F0.2833333333333333
tp1410
as(g39
g226
g3
tp1411
(lp1412
(g7
F0.3333333333333333
tp1413
a(g1
F0.29508196721311475
tp1414
as(g127
g128
g129
g132
tp1415
(lp1416
(g134
F0.23076923076923078
tp1417
as(g9
g15
g119
g10
tp1418
(lp1419
(g13
F0.27586206896551724
tp1420
as(g119
g13
tp1421
(lp1422
(g9
F0.3148148148148148
tp1423
a(g15
F0.26153846153846155
tp1424
as(g2
g7
g39
g48
tp1425
(lp1426
(g1
F0.3442622950819672
tp1427
a(g3
F0.3013698630136986
tp1428
as(g166
g117
g113
tp1429
(lp1430
(g163
F0.8888888888888888
tp1431
a(g114
F0.34
tp1432
a(g214
F0.25862068965517243
tp1433
as(S'inc:aspartate transaminase'
p1434
S'inc:creatinine'
p1435
tp1436
(lp1437
(S'inc:alanine transaminase'
p1438
F0.45454545454545453
tp1439
as(g1
g2
g7
g39
g226
tp1440
(lp1441
(g3
F0.2465753424657534
tp1442
as(g88
tp1443
(lp1444
(g85
F0.44047619047619047
tp1445
a(g543
F0.23
tp1446
as(g134
g127
tp1447
(lp1448
(g132
F0.39473684210526316
tp1449
a(g129
F0.22077922077922077
tp1450
as(g35
g29
g136
tp1451
(lp1452
(g32
F0.2054794520547945
tp1453
as(g196
g273
tp1454
(lp1455
(g276
F0.30158730158730157
tp1456
as(g15
g286
tp1457
(lp1458
(g9
F0.48148148148148145
tp1459
a(g13
F0.4482758620689655
tp1460
as(g29
g10
tp1461
(lp1462
(g39
F0.40441176470588236
tp1463
a(g7
F0.4
tp1464
a(g1
F0.36065573770491804
tp1465
a(g3
F0.3561643835616438
tp1466
a(g276
F0.3333333333333333
tp1467
a(g9
F0.2962962962962963
tp1468
a(g13
F0.29310344827586204
tp1469
a(g15
F0.27692307692307694
tp1470
a(g1104
F0.27472527472527475
tp1471
a(g1350
F0.2073170731707317
tp1472
as(g1
g2
g256
g3
tp1473
(lp1474
(g7
F0.25
tp1475
as(g226
S'inc:chest'
p1476
tp1477
(lp1478
(g655
F0.25
tp1479
as(g2
g7
g39
g168
g3
tp1480
(lp1481
(g1
F0.26229508196721313
tp1482
as(g2
g39
g226
g3
tp1483
(lp1484
(g7
F0.31666666666666665
tp1485
a(g1
F0.29508196721311475
tp1486
as(S'exc:deep vein thrombosis'
p1487
tp1488
(lp1489
(S'exc:venous thrombosis'
p1490
F0.9523809523809523
tp1491
as(S'inc:aspartate transaminase'
p1492
S'inc:bilirubin'
p1493
tp1494
(lp1495
(S'inc:alanine transaminase'
p1496
F0.5151515151515151
tp1497
as(g35
tp1498
(lp1499
(g7
F0.9333333333333333
tp1500
a(g3
F0.8356164383561644
tp1501
a(g44
F0.4418604651162791
tp1502
a(g2
F0.4357142857142857
tp1503
a(g39
F0.4117647058823529
tp1504
a(g46
F0.36363636363636365
tp1505
a(g136
F0.35714285714285715
tp1506
a(g31
F0.30357142857142855
tp1507
a(g48
F0.2926829268292683
tp1508
a(g52
F0.21649484536082475
tp1509
as(g2
g39
g48
g3
tp1510
(lp1511
(g7
F0.36666666666666664
tp1512
a(g1
F0.36065573770491804
tp1513
a(g31
F0.26785714285714285
tp1514
as(g72
g10
g286
tp1515
(lp1516
(g13
F0.25862068965517243
tp1517
as(g677
tp1518
(lp1519
(g675
F0.8333333333333334
tp1520
a(g298
F0.5151515151515151
tp1521
a(g301
F0.5
tp1522
a(S'inc:fatigue'
p1523
F0.5
tp1524
as(g1
g7
g46
tp1525
(lp1526
(g3
F0.2191780821917808
tp1527
as(g35
g37
g30
g31
tp1528
(lp1529
(g32
F0.2054794520547945
tp1530
as(g7
g168
tp1531
(lp1532
(g1
F0.2786885245901639
tp1533
a(g3
F0.2465753424657534
tp1534
as(g35
g37
g30
g32
tp1535
(lp1536
(g31
F0.26785714285714285
tp1537
as(g519
tp1538
(lp1539
(g465
F0.25
tp1540
as(g505
g128
tp1541
(lp1542
(g1131
F0.24615384615384617
tp1543
a(g819
F0.23376623376623376
tp1544
as(g9
g10
g13
tp1545
(lp1546
(g15
F0.6307692307692307
tp1547
as(g9
g10
g286
g407
tp1548
(lp1549
(g13
F0.25862068965517243
tp1550
as(g29
g196
g30
g31
tp1551
(lp1552
(g35
F0.2459016393442623
tp1553
a(g32
F0.2054794520547945
tp1554
as(g1
g7
g52
tp1555
(lp1556
(g3
F0.273972602739726
tp1557
as(g1054
tp1558
(lp1559
(g1382
F0.38636363636363635
tp1560
as(g1
g46
g3
tp1561
(lp1562
(g7
F0.26666666666666666
tp1563
as(S'inc:hydroxychloroquine'
p1564
tp1565
(lp1566
(S'inc:chloroquine'
p1567
F0.8947368421052632
tp1568
as(g1
g2
g7
g39
g192
tp1569
(lp1570
(g3
F0.2602739726027397
tp1571
as(g166
g113
tp1572
(lp1573
(g163
F1.0
tp1574
a(g114
F0.44
tp1575
a(g117
F0.3114754098360656
tp1576
a(g214
F0.3103448275862069
tp1577
as(g1
g39
g46
tp1578
(lp1579
(g7
F0.26666666666666666
tp1580
a(g3
F0.2191780821917808
tp1581
as(g482
tp1582
(lp1583
(S'exc:infarction'
p1584
F0.875
tp1585
a(g388
F0.7083333333333334
tp1586
a(g393
F0.6176470588235294
tp1587
a(g480
F0.3409090909090909
tp1588
a(g390
F0.265625
tp1589
a(S'exc:cardiac arrhythmia'
p1590
F0.2328767123287671
tp1591
as(g226
g484
tp1592
(lp1593
(g691
F0.2465753424657534
tp1594
as(S'exc:kidney replacement procedure'
p1595
tp1596
(lp1597
(S'exc:renal replacement therapy'
p1598
F1.0
tp1599
as(g29
g196
g273
tp1600
(lp1601
(g276
F0.2857142857142857
tp1602
as(g10
g1223
tp1603
(lp1604
(g1219
F0.5277777777777778
tp1605
as(g1
g192
g3
tp1606
(lp1607
(g7
F0.31666666666666665
tp1608
as(g196
g10
tp1609
(lp1610
(g7
F0.4
tp1611
a(g2
F0.39285714285714285
tp1612
a(g1
F0.3442622950819672
tp1613
a(g3
F0.3424657534246575
tp1614
a(g276
F0.3333333333333333
tp1615
a(g1104
F0.32967032967032966
tp1616
a(g13
F0.3275862068965517
tp1617
a(g9
F0.2962962962962963
tp1618
a(g15
F0.27692307692307694
tp1619
as(g46
g3
tp1620
(lp1621
(g7
F0.26666666666666666
tp1622
a(g1
F0.26229508196721313
tp1623
as(g226
g10
g13
tp1624
(lp1625
(g9
F0.37037037037037035
tp1626
a(g15
F0.3076923076923077
tp1627
as(S'inc:lung'
p1628
S'inc:oxygen'
p1629
tp1630
(lp1631
(g333
F0.25806451612903225
tp1632
as(g1496
g1493
tp1633
(lp1634
(g1492
F0.4358974358974359
tp1635
as(g10
g1598
tp1636
(lp1637
(g1595
F0.9642857142857143
tp1638
as(g429
g61
tp1639
(lp1640
(g432
F0.4603174603174603
tp1641
a(g428
F0.20833333333333334
tp1642
as(S'inc:renal dialysis'
p1643
tp1644
(lp1645
(g101
F0.2
tp1646
as(g24
S'exc:pharmacologic substance'
p1647
tp1648
(lp1649
(g27
F0.23655913978494625
tp1650
as(g144
g149
tp1651
(lp1652
(g147
F0.9
tp1653
as(S'exc:blood transfusion'
p1654
tp1655
(lp1656
(S'exc:blood product'
p1657
F0.5714285714285714
tp1658
a(S'exc:immunoglobulins'
p1659
F0.4772727272727273
tp1660
a(S'exc:plasma'
p1661
F0.4166666666666667
tp1662
as(g1
g2
g10
g3
tp1663
(lp1664
(g7
F0.36666666666666664
tp1665
as(S'inc:alanine transaminase'
p1666
tp1667
(lp1668
(S'inc:alanine'
p1669
F1.0
tp1670
a(g1493
F0.9
tp1671
a(S'inc:aspartate transaminase'
p1672
F0.7948717948717948
tp1673
a(g1435
F0.6956521739130435
tp1674
as(g166
g214
tp1675
(lp1676
(g114
F0.34
tp1677
a(g117
F0.26229508196721313
tp1678
as(g10
S'exc:oxygen'
p1679
tp1680
(lp1681
(g451
F0.21428571428571427
tp1682
as(g15
g226
tp1683
(lp1684
(g9
F0.3888888888888889
tp1685
a(g13
F0.3620689655172414
tp1686
as(g13
tp1687
(lp1688
(g9
F1.0
tp1689
a(g15
F0.7692307692307693
tp1690
a(g407
F0.23655913978494625
tp1691
a(g54
F0.20833333333333334
tp1692
as(g377
S'inc:pneumonia'
p1693
tp1694
(lp1695
(g381
F0.20930232558139536
tp1696
a(g78
F0.20192307692307693
tp1697
as(S'exc:hepatic impairment'
p1698
tp1699
(lp1700
(g492
F0.2465753424657534
tp1701
as(g465
g97
tp1702
(lp1703
(g98
F0.5
tp1704
a(g101
F0.21333333333333335
tp1705
as(g1225
tp1706
(lp1707
(g1229
F0.72
tp1708
as(g2
g256
tp1709
(lp1710
(g1
F0.2786885245901639
tp1711
a(g7
F0.26666666666666666
tp1712
a(g3
F0.2328767123287671
tp1713
as(g7
g39
g103
g3
tp1714
(lp1715
(g1
F0.29508196721311475
tp1716
as(g117
tp1717
(lp1718
(S'inc:diabetes mellitus'
p1719
F1.0
tp1720
a(g163
F0.8888888888888888
tp1721
a(S'inc:obesity'
p1722
F0.8518518518518519
tp1723
a(S'inc:chronic kidney diseases'
p1724
F0.8333333333333334
tp1725
a(S'inc:asthma'
p1726
F0.6923076923076923
tp1727
a(g166
F0.6896551724137931
tp1728
a(g180
F0.6551724137931034
tp1729
a(S'inc:cardiovascular diseases'
p1730
F0.6153846153846154
tp1731
a(g114
F0.58
tp1732
a(g462
F0.40540540540540543
tp1733
a(g540
F0.35
tp1734
a(g516
F0.3
tp1735
a(g112
F0.29333333333333333
tp1736
a(S'inc:malignant neoplasms'
p1737
F0.24468085106382978
tp1738
as(g7
g367
tp1739
(lp1740
(g3
F0.2191780821917808
tp1741
as(g1
g7
g44
tp1742
(lp1743
(g3
F0.2465753424657534
tp1744
as(g423
g377
g378
tp1745
(lp1746
(g381
F0.22093023255813954
tp1747
a(g383
F0.20652173913043478
tp1748
as(g214
g113
g114
tp1749
(lp1750
(g166
F0.5862068965517241
tp1751
a(g117
F0.3442622950819672
tp1752
as(g166
g113
g163
tp1753
(lp1754
(g114
F0.36
tp1755
a(g117
F0.26229508196721313
tp1756
as(g168
tp1757
(lp1758
(g61
F1.0
tp1759
a(S'exc:hiv infections'
p1760
F1.0
tp1761
a(S'exc:hepatitis c virus'
p1762
F0.8181818181818182
tp1763
a(g57
F0.8181818181818182
tp1764
a(S'exc:hepatitis b virus'
p1765
F0.8076923076923077
tp1766
a(g63
F0.6984126984126984
tp1767
a(g59
F0.6578947368421053
tp1768
a(g320
F0.5694444444444444
tp1769
a(g311
F0.47058823529411764
tp1770
a(S'exc:marrow'
p1771
F0.4594594594594595
tp1772
a(g316
F0.44776119402985076
tp1773
a(S'exc:skeletal bone'
p1774
F0.4358974358974359
tp1775
a(g222
F0.4224137931034483
tp1776
a(g314
F0.4186046511627907
tp1777
a(g219
F0.4032258064516129
tp1778
a(g224
F0.35
tp1779
a(g140
F0.3299492385786802
tp1780
a(g9
F0.3148148148148148
tp1781
a(g13
F0.3103448275862069
tp1782
a(g7
F0.3
tp1783
a(g15
F0.2923076923076923
tp1784
a(g329
F0.28169014084507044
tp1785
a(g1
F0.2786885245901639
tp1786
a(g245
F0.265625
tp1787
a(g39
F0.2647058823529412
tp1788
a(g543
F0.26
tp1789
a(g3
F0.2465753424657534
tp1790
a(g335
F0.24
tp1791
a(g209
F0.24
tp1792
a(g276
F0.23809523809523808
tp1793
a(g29
F0.2357142857142857
tp1794
a(g1354
F0.2345679012345679
tp1795
a(g333
F0.22580645161290322
tp1796
a(g655
F0.22321428571428573
tp1797
a(g1350
F0.21951219512195122
tp1798
a(g27
F0.21505376344086022
tp1799
a(g1104
F0.2087912087912088
tp1800
a(g129
F0.2077922077922078
tp1801
a(g936
F0.20618556701030927
tp1802
a(g327
F0.20238095238095238
tp1803
a(g337
F0.2
tp1804
as(g7
g39
g10
g3
tp1805
(lp1806
(g1
F0.3442622950819672
tp1807
as(g129
g132
g985
tp1808
(lp1809
(g134
F0.26153846153846155
tp1810
as(g388
g389
tp1811
(lp1812
(g393
F0.5
tp1813
a(g390
F0.265625
tp1814
as(g2
g7
g50
tp1815
(lp1816
(g3
F0.2054794520547945
tp1817
as(g1661
tp1818
(lp1819
(g1654
F0.3333333333333333
tp1820
as(g1
g7
g39
g48
tp1821
(lp1822
(g3
F0.2876712328767123
tp1823
as(g72
g9
g10
g13
tp1824
(lp1825
(g15
F0.23076923076923078
tp1826
as(g2
g7
g48
tp1827
(lp1828
(g1
F0.36065573770491804
tp1829
a(g3
F0.3150684931506849
tp1830
a(g31
F0.26785714285714285
tp1831
as(g166
tp1832
(lp1833
(g163
F1.0
tp1834
a(g114
F0.44
tp1835
a(g117
F0.32786885245901637
tp1836
a(g214
F0.3275862068965517
tp1837
as(g2
g7
g39
g303
tp1838
(lp1839
(g1
F0.29508196721311475
tp1840
a(g3
F0.2465753424657534
tp1841
as(g701
g377
tp1842
(lp1843
(g381
F0.22093023255813954
tp1844
as(g1
g2
g7
g44
tp1845
(lp1846
(g3
F0.2465753424657534
tp1847
as(g1
g2
g226
tp1848
(lp1849
(g7
F0.3
tp1850
a(g3
F0.2602739726027397
tp1851
as(g1672
tp1852
(lp1853
(g1666
F0.9393939393939394
tp1854
a(g1493
F0.9
tp1855
a(S'inc:aspartate'
p1856
F0.8823529411764706
tp1857
a(g1435
F0.6521739130434783
tp1858
a(g101
F0.2
tp1859
as(g226
g655
tp1860
(lp1861
(g480
F0.5909090909090909
tp1862
a(g132
F0.42105263157894735
tp1863
a(g482
F0.34
tp1864
a(g1087
F0.3125
tp1865
a(g129
F0.3116883116883117
tp1866
a(g134
F0.3076923076923077
tp1867
a(g660
F0.2876712328767123
tp1868
a(g63
F0.2698412698412698
tp1869
a(g1093
F0.2602739726027397
tp1870
a(g451
F0.2571428571428571
tp1871
a(g1073
F0.25
tp1872
a(g212
F0.2465753424657534
tp1873
a(g276
F0.23809523809523808
tp1874
a(g1138
F0.23786407766990292
tp1875
a(g337
F0.21333333333333335
tp1876
a(g24
F0.21142857142857144
tp1877
a(g149
F0.20238095238095238
tp1878
as(g15
g119
g13
tp1879
(lp1880
(g9
F0.3148148148148148
tp1881
as(g71
g72
g15
g13
tp1882
(lp1883
(g9
F0.2777777777777778
tp1884
as(g9
g10
g13
g407
tp1885
(lp1886
(g15
F0.24615384615384617
tp1887
as(g1719
tp1888
(lp1889
(S'inc:diabetes'
p1890
F0.3770491803278688
tp1891
a(g214
F0.25862068965517243
tp1892
as(g1
g7
g39
g52
tp1893
(lp1894
(g3
F0.273972602739726
tp1895
as(g136
tp1896
(lp1897
(g35
F0.2459016393442623
tp1898
a(g32
F0.2328767123287671
tp1899
as(g675
tp1900
(lp1901
(g677
F0.7142857142857143
tp1902
a(g298
F0.5757575757575758
tp1903
a(g301
F0.5588235294117647
tp1904
a(g1523
F0.5588235294117647
tp1905
a(g1160
F0.2
tp1906
as(g505
g128
g819
tp1907
(lp1908
(g1131
F0.23076923076923078
tp1909
as(g1
g2
g7
g39
g46
tp1910
(lp1911
(g3
F0.2191780821917808
tp1912
as(g1
g2
g7
g39
g103
tp1913
(lp1914
(g3
F0.2465753424657534
tp1915
as(S'inc:heart'
p1916
g534
tp1917
(lp1918
(S'inc:kidney'
p1919
F0.2
tp1920
as(g297
g671
tp1921
(lp1922
(g298
F0.6363636363636364
tp1923
a(g301
F0.6176470588235294
tp1924
a(g677
F0.45714285714285713
tp1925
as(g1
g39
g44
tp1926
(lp1927
(g7
F0.2833333333333333
tp1928
a(g3
F0.2328767123287671
tp1929
as(g2
g39
g3
g52
tp1930
(lp1931
(g7
F0.3333333333333333
tp1932
a(g1
F0.32786885245901637
tp1933
as(g134
g985
tp1934
(lp1935
(g132
F0.4473684210526316
tp1936
a(g129
F0.23376623376623376
tp1937
as(g388
g390
tp1938
(lp1939
(g393
F0.7058823529411765
tp1940
a(g389
F0.34
tp1941
as(g196
g276
tp1942
(lp1943
(g273
F0.2087912087912088
tp1944
as(g119
g10
tp1945
(lp1946
(g1760
F0.4523809523809524
tp1947
a(g9
F0.2962962962962963
tp1948
a(g13
F0.27586206896551724
tp1949
a(g15
F0.26153846153846155
tp1950
a(g63
F0.23809523809523808
tp1951
a(g276
F0.23809523809523808
tp1952
a(g320
F0.20833333333333334
tp1953
as(g1890
g1719
tp1954
(lp1955
(g214
F0.25862068965517243
tp1956
as(g1102
g208
g10
tp1957
(lp1958
(g212
F0.2602739726027397
tp1959
as(g180
g113
tp1960
(lp1961
(g166
F0.6206896551724138
tp1962
a(g114
F0.52
tp1963
a(g353
F0.4262295081967213
tp1964
a(g516
F0.23
tp1965
a(S'inc:kidney'
p1966
F0.2
tp1967
as(g388
g226
g390
tp1968
(lp1969
(g393
F0.5882352941176471
tp1970
as(g1
g2
g367
tp1971
(lp1972
(g3
F0.2191780821917808
tp1973
as(g1
g39
g103
tp1974
(lp1975
(g7
F0.3
tp1976
a(g3
F0.2465753424657534
tp1977
as(g128
g129
g985
tp1978
(lp1979
(g132
F0.47368421052631576
tp1980
a(g134
F0.27692307692307694
tp1981
as(S'exc:atrial fibrillation'
p1982
tp1983
(lp1984
(S'exc:fibrillations'
p1985
F0.8181818181818182
tp1986
as(g10
S'exc:kidney failure'
p1987
tp1988
(lp1989
(S'exc:kidney failure chronic'
p1990
F0.5483870967741935
tp1991
a(g1332
F0.36585365853658536
tp1992
a(S'exc:glomerular filtration rate'
p1993
F0.23076923076923078
tp1994
as(g15
g10
g13
g286
tp1995
(lp1996
(g9
F0.42592592592592593
tp1997
as(g7
g39
g226
g3
tp1998
(lp1999
(g1
F0.29508196721311475
tp2000
as(g1160
g301
tp2001
(lp2002
(g298
F0.48484848484848486
tp2003
as(g1
g2
g39
tp2004
(lp2005
(g7
F0.9166666666666666
tp2006
a(g3
F0.7671232876712328
tp2007
a(g44
F0.3953488372093023
tp2008
a(g46
F0.36363636363636365
tp2009
a(g48
F0.2682926829268293
tp2010
a(g31
F0.26785714285714285
tp2011
a(g52
F0.20618556701030927
tp2012
as(g7
g226
g3
tp2013
(lp2014
(g1
F0.29508196721311475
tp2015
as(g423
g1628
tp2016
(lp2017
(g381
F0.2558139534883721
tp2018
a(g333
F0.24731182795698925
tp2019
a(g383
F0.2391304347826087
tp2020
a(g378
F0.20610687022900764
tp2021
as(g1
g7
g39
g4
tp2022
(lp2023
(g3
F0.2054794520547945
tp2024
as(g7
g192
g3
tp2025
(lp2026
(g1
F0.3114754098360656
tp2027
as(g10
g1332
tp2028
(lp2029
(g1987
F0.23076923076923078
tp2030
as(g9
tp2031
(lp2032
(g13
F0.9310344827586207
tp2033
a(g15
F0.7692307692307693
tp2034
a(g407
F0.21505376344086022
tp2035
a(g54
F0.20833333333333334
tp2036
as(g1
g2
g7
g39
g3
tp2037
(lp2038
(g44
F0.3953488372093023
tp2039
a(g46
F0.36363636363636365
tp2040
a(g48
F0.25609756097560976
tp2041
a(g52
F0.20618556701030927
tp2042
as(g39
g226
tp2043
(lp2044
(g44
F0.3488372093023256
tp2045
a(g7
F0.3333333333333333
tp2046
a(g1
F0.29508196721311475
tp2047
a(g3
F0.2876712328767123
tp2048
a(g2
F0.2714285714285714
tp2049
as(g329
tp2050
(lp2051
(S'exc:transplanted organ'
p2052
F0.7391304347826086
tp2053
a(g1771
F0.5405405405405406
tp2054
a(g1774
F0.5128205128205128
tp2055
as(g7
g48
tp2056
(lp2057
(g1
F0.36065573770491804
tp2058
a(g3
F0.3150684931506849
tp2059
a(g31
F0.26785714285714285
tp2060
as(g39
g256
tp2061
(lp2062
(g7
F0.26666666666666666
tp2063
a(g1
F0.2459016393442623
tp2064
a(g3
F0.2054794520547945
tp2065
as(g2
g7
g39
g226
tp2066
(lp2067
(g1
F0.29508196721311475
tp2068
a(g3
F0.2602739726027397
tp2069
as(S'inc:immunosuppressive agents'
p2070
tp2071
(lp2072
(g524
F0.6956521739130435
tp2073
as(g297
g301
tp2074
(lp2075
(g298
F0.696969696969697
tp2076
as(g393
g388
g226
tp2077
(lp2078
(g390
F0.3125
tp2079
as(g2
g226
g3
tp2080
(lp2081
(g7
F0.31666666666666665
tp2082
a(g1
F0.3114754098360656
tp2083
as(S'inc:diabetes'
p2084
g1722
tp2085
(lp2086
(S'inc:hypertensive disease'
p2087
F0.27586206896551724
tp2088
a(S'inc:body mass index'
p2089
F0.25
tp2090
as(g39
g3
g4
tp2091
(lp2092
(g7
F0.25
tp2093
a(g1
F0.2459016393442623
tp2094
as(g59
g1226
tp2095
(lp2096
(g428
F0.2222222222222222
tp2097
as(g1
g48
g3
tp2098
(lp2099
(g7
F0.36666666666666664
tp2100
a(g31
F0.30357142857142855
tp2101
as(g2
g3
g4
tp2102
(lp2103
(g7
F0.25
tp2104
a(g1
F0.2459016393442623
tp2105
as(S'inc:inspired fraction of oxygen'
p2106
g378
tp2107
(lp2108
(g381
F0.37209302325581395
tp2109
a(g383
F0.34782608695652173
tp2110
a(g640
F0.20689655172413793
tp2111
as(g2
g7
g3
g4
tp2112
(lp2113
(g1
F0.2459016393442623
tp2114
as(g1669
tp2115
(lp2116
(g1666
F0.45454545454545453
tp2117
as(g1
g7
g10
tp2118
(lp2119
(g3
F0.3013698630136986
tp2120
as(g29
g37
g31
tp2121
(lp2122
(g35
F0.2459016393442623
tp2123
a(g32
F0.2054794520547945
tp2124
as(g1226
g1229
tp2125
(lp2126
(g1225
F1.0
tp2127
as(g126
g209
tp2128
(lp2129
(g629
F0.4222222222222222
tp2130
a(g27
F0.40860215053763443
tp2131
a(g451
F0.38571428571428573
tp2132
a(g655
F0.33035714285714285
tp2133
a(g484
F0.2830188679245283
tp2134
a(g212
F0.2465753424657534
tp2135
a(g660
F0.2328767123287671
tp2136
a(g15
F0.23076923076923078
tp2137
a(g329
F0.22535211267605634
tp2138
a(g10
F0.2109090909090909
tp2139
a(g320
F0.20833333333333334
tp2140
as(g2
g192
g3
tp2141
(lp2142
(g1
F0.32786885245901637
tp2143
a(g7
F0.31666666666666665
tp2144
as(g9
g13
tp2145
(lp2146
(g15
F0.7692307692307693
tp2147
a(g407
F0.21505376344086022
tp2148
a(g54
F0.20833333333333334
tp2149
as(g1771
tp2150
(lp2151
(g1248
F1.0
tp2152
a(g1774
F0.9230769230769231
tp2153
a(g1250
F0.28169014084507044
tp2154
as(g71
g72
g9
g13
tp2155
(lp2156
(g15
F0.23076923076923078
tp2157
as(g127
g129
g132
tp2158
(lp2159
(g134
F0.23076923076923078
tp2160
as(g203
g103
tp2161
(lp2162
(g212
F0.2191780821917808
tp2163
a(g660
F0.2054794520547945
tp2164
as(g39
g168
tp2165
(lp2166
(g1760
F0.35714285714285715
tp2167
a(g7
F0.2833333333333333
tp2168
a(g1
F0.26229508196721313
tp2169
a(g3
F0.2328767123287671
tp2170
a(g2
F0.22857142857142856
tp2171
as(g2
S'exc:malignant neoplasms'
p2172
tp2173
(lp2174
(g3
F0.2054794520547945
tp2175
as(g126
g10
tp2176
(lp2177
(g451
F0.5428571428571428
tp2178
a(g1339
F0.47692307692307695
tp2179
a(g484
F0.4716981132075472
tp2180
a(g276
F0.4603174603174603
tp2181
a(S'exc:amiodarone'
p2182
F0.45454545454545453
tp2183
a(g655
F0.4375
tp2184
a(g1093
F0.410958904109589
tp2185
a(g480
F0.38636363636363635
tp2186
a(g629
F0.37777777777777777
tp2187
a(g9
F0.37037037037037035
tp2188
a(g13
F0.3620689655172414
tp2189
a(g1104
F0.3516483516483517
tp2190
a(g212
F0.3424657534246575
tp2191
a(g660
F0.3424657534246575
tp2192
a(g15
F0.3384615384615385
tp2193
a(g24
F0.3314285714285714
tp2194
a(g729
F0.3125
tp2195
a(g27
F0.3118279569892473
tp2196
a(g1102
F0.2962962962962963
tp2197
a(S'exc:mental disorders'
p2198
F0.2631578947368421
tp2199
a(g129
F0.24675324675324675
tp2200
a(g208
F0.23741007194244604
tp2201
a(g1073
F0.234375
tp2202
a(g1350
F0.21951219512195122
tp2203
a(g3
F0.2191780821917808
tp2204
a(g329
F0.2112676056338028
tp2205
as(g132
tp2206
(lp2207
(g134
F0.5692307692307692
tp2208
a(g129
F0.4935064935064935
tp2209
as(g2
g48
tp2210
(lp2211
(g31
F0.44642857142857145
tp2212
a(g44
F0.4186046511627907
tp2213
a(g1
F0.39344262295081966
tp2214
a(g7
F0.38333333333333336
tp2215
a(g3
F0.3424657534246575
tp2216
a(g39
F0.25
tp2217
as(g1219
tp2218
(lp2219
(g1223
F0.7777777777777778
tp2220
a(g1220
F0.3013698630136986
tp2221
as(g1
g2
g7
g39
g52
tp2222
(lp2223
(g3
F0.273972602739726
tp2224
as(g1
g168
g3
tp2225
(lp2226
(g7
F0.2833333333333333
tp2227
as(g44
tp2228
(lp2229
(g7
F0.3333333333333333
tp2230
a(g1
F0.3114754098360656
tp2231
a(g1350
F0.2926829268292683
tp2232
a(g3
F0.2876712328767123
tp2233
a(g245
F0.234375
tp2234
a(g2
F0.22857142857142856
tp2235
a(g39
F0.21323529411764705
tp2236
as(g29
g37
g30
g31
g32
tp2237
(lp2238
(g35
F0.2459016393442623
tp2239
as(g128
g600
tp2240
(lp2241
(g322
F0.25396825396825395
tp2242
a(g129
F0.2077922077922078
tp2243
as(g2
g7
g52
tp2244
(lp2245
(g1
F0.32786885245901637
tp2246
a(g3
F0.273972602739726
tp2247
as(g72
g9
g10
tp2248
(lp2249
(g13
F0.27586206896551724
tp2250
a(g15
F0.23076923076923078
tp2251
as(g320
g65
tp2252
(lp2253
(g57
F0.8181818181818182
tp2254
a(g59
F0.6578947368421053
tp2255
a(g61
F0.5172413793103449
tp2256
a(g63
F0.2857142857142857
tp2257
as(g39
g367
tp2258
(lp2259
(g7
F0.26666666666666666
tp2260
a(g13
F0.25862068965517243
tp2261
a(g27
F0.24731182795698925
tp2262
a(g2
F0.2357142857142857
tp2263
a(g3
F0.2328767123287671
tp2264
as(g2
g7
g103
tp2265
(lp2266
(g1
F0.29508196721311475
tp2267
a(g3
F0.2465753424657534
tp2268
as(g15
g226
g10
g13
tp2269
(lp2270
(g9
F0.37037037037037035
tp2271
as(g432
tp2272
(lp2273
(g61
F1.0
tp2274
a(g314
F0.5581395348837209
tp2275
a(g1774
F0.38461538461538464
tp2276
a(S'exc:hiv'
p2277
F0.31654676258992803
tp2278
a(g428
F0.2638888888888889
tp2279
a(S'exc:immunosuppressive agents'
p2280
F0.2413793103448276
tp2281
a(S'exc:adrenal cortex hormones'
p2282
F0.2375
tp2283
a(S'inc:contraceptive methods'
p2284
F0.21
tp2285
as(S'exc:liver'
p2286
g1771
tp2287
(lp2288
(g1774
F0.4358974358974359
tp2289
as(g418
tp2290
(lp2291
(g415
F1.0
tp2292
a(g245
F0.421875
tp2293
a(g186
F0.3275862068965517
tp2294
a(g322
F0.2857142857142857
tp2295
a(g1073
F0.234375
tp2296
a(g3
F0.2328767123287671
tp2297
a(g39
F0.22794117647058823
tp2298
a(S'exc:pharmacologic substance'
p2299
F0.20348837209302326
tp2300
as(g186
tp2301
(lp2302
(g183
F1.0
tp2303
a(S'exc:operative surgical procedures'
p2304
F0.42857142857142855
tp2305
a(g418
F0.2111111111111111
tp2306
as(g381
g377
tp2307
(lp2308
(g378
F0.24427480916030533
tp2309
a(g698
F0.2391304347826087
tp2310
a(g704
F0.20689655172413793
tp2311
a(g701
F0.20430107526881722
tp2312
a(g149
F0.20238095238095238
tp2313
as(g7
g256
tp2314
(lp2315
(g1
F0.2459016393442623
tp2316
a(g3
F0.2054794520547945
tp2317
as(g1
g10
g3
tp2318
(lp2319
(g7
F0.36666666666666664
tp2320
as(g1
g39
tp2321
(lp2322
(g7
F0.9166666666666666
tp2323
a(g3
F0.7671232876712328
tp2324
a(g2
F0.4
tp2325
a(g44
F0.3953488372093023
tp2326
a(g46
F0.36363636363636365
tp2327
a(g48
F0.2682926829268293
tp2328
a(g31
F0.26785714285714285
tp2329
a(g52
F0.20618556701030927
tp2330
as(g226
g390
tp2331
(lp2332
(g388
F0.8333333333333334
tp2333
a(g393
F0.6470588235294118
tp2334
as(g149
tp2335
(lp2336
(g144
F1.0
tp2337
a(g147
F0.9
tp2338
a(S'inc:positive end-expiratory pressure'
p2339
F0.5333333333333333
tp2340
a(S'exc:respiratory distress syndrome adult'
p2341
F0.38095238095238093
tp2342
a(S'inc:arteries'
p2343
F0.20930232558139536
tp2344
a(g581
F0.20114942528735633
tp2345
as(g1724
g112
tp2346
(lp2347
(g117
F0.2459016393442623
tp2348
as(g462
tp2349
(lp2350
(S'inc:hypertensive disease'
p2351
F0.3620689655172414
tp2352
a(g465
F0.36
tp2353
a(S'inc:diabetes'
p2354
F0.2459016393442623
tp2355
a(g980
F0.22666666666666666
tp2356
as(g534
tp2357
(lp2358
(g17
F0.5555555555555556
tp2359
a(S'inc:hiv'
p2360
F0.3448275862068966
tp2361
a(g1919
F0.24
tp2362
a(S'inc:malignant neoplasms'
p2363
F0.2127659574468085
tp2364
as(g1
g39
g256
g3
tp2365
(lp2366
(g7
F0.25
tp2367
as(g129
g132
tp2368
(lp2369
(g134
F0.5692307692307692
tp2370
as(g2
g7
g46
g3
tp2371
(lp2372
(g1
F0.26229508196721313
tp2373
as(g393
tp2374
(lp2375
(g388
F1.0
tp2376
a(g390
F0.421875
tp2377
a(g389
F0.42
tp2378
a(g474
F0.2328767123287671
tp2379
as(g480
g226
tp2380
(lp2381
(g482
F0.3
tp2382
a(g655
F0.23214285714285715
tp2383
a(g1590
F0.2054794520547945
tp2384
as(g378
g383
tp2385
(lp2386
(g381
F0.26744186046511625
tp2387
a(g423
F0.21551724137931033
tp2388
a(g640
F0.20689655172413793
tp2389
as(g1487
g1226
tp2390
(lp2391
(g1490
F0.8571428571428571
tp2392
as(g1
g2
g226
g3
tp2393
(lp2394
(g7
F0.3
tp2395
as(g1220
tp2396
(lp2397
(S'exc:digoxin'
p2398
F0.625
tp2399
a(g1219
F0.6111111111111112
tp2400
a(S'exc:psoriasis'
p2401
F0.4864864864864865
tp2402
a(g2182
F0.48484848484848486
tp2403
a(S'exc:retina'
p2404
F0.4838709677419355
tp2405
a(S'exc:oxidoreductase'
p2406
F0.4666666666666667
tp2407
a(g1102
F0.43209876543209874
tp2408
a(g208
F0.4172661870503597
tp2409
a(g729
F0.3541666666666667
tp2410
a(g660
F0.3150684931506849
tp2411
a(g276
F0.23809523809523808
tp2412
a(g492
F0.2328767123287671
tp2413
a(g451
F0.22857142857142856
tp2414
as(g134
g126
g127
g128
tp2415
(lp2416
(g132
F0.39473684210526316
tp2417
a(g129
F0.22077922077922077
tp2418
as(g1219
g1223
tp2419
(lp2420
(g1220
F0.2876712328767123
tp2421
as(S'exc:liver diseases'
p2422
tp2423
(lp2424
(S'exc:chronic liver disease'
p2425
F0.95
tp2426
a(g451
F0.5
tp2427
a(g24
F0.46285714285714286
tp2428
a(g2401
F0.4594594594594595
tp2429
a(g13
F0.3793103448275862
tp2430
a(g629
F0.37777777777777777
tp2431
a(g9
F0.37037037037037035
tp2432
a(g15
F0.35384615384615387
tp2433
a(g320
F0.3333333333333333
tp2434
a(g1093
F0.2876712328767123
tp2435
a(g1102
F0.25925925925925924
tp2436
a(g329
F0.23943661971830985
tp2437
a(g212
F0.2328767123287671
tp2438
a(g10
F0.22181818181818183
tp2439
a(g208
F0.20863309352517986
tp2440
as(g31
tp2441
(lp2442
(g30
F0.6829268292682927
tp2443
a(g35
F0.2786885245901639
tp2444
a(g37
F0.25
tp2445
a(g32
F0.2328767123287671
tp2446
as(g21
g18
tp2447
(lp2448
(g17
F0.6296296296296297
tp2449
as(g113
g114
tp2450
(lp2451
(g163
F1.0
tp2452
a(g166
F0.7586206896551724
tp2453
a(g117
F0.45901639344262296
tp2454
a(g214
F0.4482758620689655
tp2455
a(g112
F0.24
tp2456
a(g465
F0.23
tp2457
as(g320
S'exc:liver'
p2458
tp2459
(lp2460
(g69
F0.21505376344086022
tp2461
as(g114
g163
tp2462
(lp2463
(g166
F0.6206896551724138
tp2464
a(g117
F0.26229508196721313
tp2465
as(g1
g2
g7
g52
tp2466
(lp2467
(g3
F0.273972602739726
tp2468
as(g29
g30
g31
tp2469
(lp2470
(g35
F0.2786885245901639
tp2471
a(g37
F0.25
tp2472
a(g32
F0.2328767123287671
tp2473
as(g9
g722
tp2474
(lp2475
(g13
F0.25862068965517243
tp2476
a(g15
F0.23076923076923078
tp2477
as(g868
tp2478
(lp2479
(g978
F0.2236842105263158
tp2480
as(g2280
g790
tp2481
(lp2482
(g63
F0.25396825396825395
tp2483
a(g318
F0.2014388489208633
tp2484
as(g1
g2
g7
g168
tp2485
(lp2486
(g3
F0.2328767123287671
tp2487
as(g429
g432
g899
tp2488
(lp2489
(g61
F0.5862068965517241
tp2490
as(g675
g1160
tp2491
(lp2492
(g677
F0.45714285714285713
tp2493
as(g59
g57
g65
tp2494
(lp2495
(g320
F0.20833333333333334
tp2496
as(S'exc:lung'
p2497
S'exc:oxygen'
p2498
tp2499
(lp2500
(g132
F0.47368421052631576
tp2501
a(g129
F0.35064935064935066
tp2502
a(g134
F0.3384615384615385
tp2503
a(g460
F0.29411764705882354
tp2504
a(S'exc:oxygen saturation measurement'
p2505
F0.29411764705882354
tp2506
as(g428
g10
tp2507
(lp2508
(g59
F0.4473684210526316
tp2509
as(g128
g132
tp2510
(lp2511
(g134
F0.5692307692307692
tp2512
a(g129
F0.4935064935064935
tp2513
as(g320
g57
g65
tp2514
(lp2515
(g59
F0.39473684210526316
tp2516
as(g2
g1360
tp2517
(lp2518
(g7
F0.25
tp2519
a(g1
F0.2459016393442623
tp2520
a(g78
F0.2403846153846154
tp2521
a(g39
F0.23529411764705882
tp2522
a(g3
F0.2191780821917808
tp2523
as(g1
g2
g39
g192
g3
tp2524
(lp2525
(g7
F0.31666666666666665
tp2526
as(S'inc:chest'
p2527
g1629
tp2528
(lp2529
(g333
F0.25806451612903225
tp2530
a(g78
F0.25
tp2531
as(g2527
g940
tp2532
(lp2533
(g78
F0.3076923076923077
tp2534
a(g316
F0.2835820895522388
tp2535
as(g134
g127
g128
tp2536
(lp2537
(g132
F0.39473684210526316
tp2538
a(g129
F0.22077922077922077
tp2539
as(g37
g30
g32
tp2540
(lp2541
(g1
F0.36065573770491804
tp2542
a(g31
F0.26785714285714285
tp2543
as(g1435
tp2544
(lp2545
(g1438
F0.48484848484848486
tp2546
a(g1434
F0.38461538461538464
tp2547
as(g1102
g212
tp2548
(lp2549
(g208
F0.2158273381294964
tp2550
as(g3
g52
tp2551
(lp2552
(g1
F0.3442622950819672
tp2553
a(g7
F0.3333333333333333
tp2554
as(g7
g3
tp2555
(lp2556
(g1
F0.9180327868852459
tp2557
a(g44
F0.4418604651162791
tp2558
a(g39
F0.4264705882352941
tp2559
a(g2
F0.4142857142857143
tp2560
a(g46
F0.36363636363636365
tp2561
a(g48
F0.2804878048780488
tp2562
a(g31
F0.26785714285714285
tp2563
a(g50
F0.234375
tp2564
a(g52
F0.20618556701030927
tp2565
as(g1057
tp2566
(lp2567
(g1102
F0.2222222222222222
tp2568
as(S'inc:x-ray computed tomography'
p2569
tp2570
(lp2571
(g333
F0.45161290322580644
tp2572
a(g73
F0.36649214659685864
tp2573
a(g316
F0.2537313432835821
tp2574
a(g3
F0.2465753424657534
tp2575
a(g71
F0.22857142857142856
tp2576
a(g72
F0.22058823529411764
tp2577
a(S'inc:inspired fraction of oxygen'
p2578
F0.20689655172413793
tp2579
a(g149
F0.20238095238095238
tp2580
as(g1219
S'exc:hydroxychloroquine'
p2581
g1223
tp2582
(lp2583
(g1220
F0.2328767123287671
tp2584
as(g2
g7
g44
tp2585
(lp2586
(g1
F0.29508196721311475
tp2587
a(g3
F0.2602739726027397
tp2588
as(g2404
tp2589
(lp2590
(S'exc:eye'
p2591
F0.5769230769230769
tp2592
a(g720
F0.2054794520547945
tp2593
as(g516
g180
g172
tp2594
(lp2595
(g114
F0.34
tp2596
a(g353
F0.26229508196721313
tp2597
as(g7
g39
g3
g4
tp2598
(lp2599
(g1
F0.2459016393442623
tp2600
as(g2172
g511
tp2601
(lp2602
(g322
F0.23809523809523808
tp2603
as(g393
g388
g389
tp2604
(lp2605
(g390
F0.265625
tp2606
as(g126
g132
tp2607
(lp2608
(g134
F0.3230769230769231
tp2609
a(g129
F0.2857142857142857
tp2610
as(g7
g39
g192
tp2611
(lp2612
(g1
F0.3114754098360656
tp2613
a(g3
F0.2602739726027397
tp2614
as(g18
tp2615
(lp2616
(g17
F0.7407407407407407
tp2617
a(g1730
F0.6538461538461539
tp2618
a(g534
F0.46511627906976744
tp2619
a(g178
F0.41379310344827586
tp2620
a(g180
F0.39655172413793105
tp2621
a(g117
F0.3770491803278688
tp2622
a(g112
F0.36
tp2623
a(g114
F0.34
tp2624
a(g532
F0.32
tp2625
a(g465
F0.24
tp2626
a(g536
F0.23684210526315788
tp2627
a(g172
F0.2028985507246377
tp2628
as(g226
g13
tp2629
(lp2630
(g9
F0.4074074074074074
tp2631
a(g15
F0.3230769230769231
tp2632
as(g381
g377
g378
tp2633
(lp2634
(g698
F0.20652173913043478
tp2635
as(g71
g9
g10
tp2636
(lp2637
(g13
F0.27586206896551724
tp2638
a(g15
F0.23076923076923078
tp2639
as(g168
g1774
tp2640
(lp2641
(g1771
F0.43243243243243246
tp2642
as(g226
g27
tp2643
(lp2644
(g451
F0.24285714285714285
tp2645
a(g24
F0.21714285714285714
tp2646
as(g7
g226
tp2647
(lp2648
(g1
F0.29508196721311475
tp2649
a(g3
F0.273972602739726
tp2650
as(g134
g126
g129
tp2651
(lp2652
(g132
F0.5526315789473685
tp2653
as(g1
g2
g7
tp2654
(lp2655
(g3
F0.7671232876712328
tp2656
a(g44
F0.4186046511627907
tp2657
a(g39
F0.40441176470588236
tp2658
a(g46
F0.36363636363636365
tp2659
a(g48
F0.2682926829268293
tp2660
a(g31
F0.26785714285714285
tp2661
a(g52
F0.20618556701030927
tp2662
as(g1629
S'inc:x-ray computed tomography'
p2663
tp2664
(lp2665
(g333
F0.23655913978494625
tp2666
as(g1
g2
g39
g3
g4
tp2667
(lp2668
(g7
F0.25
tp2669
as(g134
g128
g129
g985
tp2670
(lp2671
(g132
F0.4473684210526316
tp2672
as(g126
g128
g985
tp2673
(lp2674
(g129
F0.2077922077922078
tp2675
as(g126
S'exc:hydroxychloroquine'
p2676
tp2677
(lp2678
(g2182
F0.45454545454545453
tp2679
a(g729
F0.4375
tp2680
a(g2401
F0.40540540540540543
tp2681
a(g660
F0.3972602739726027
tp2682
a(g212
F0.3561643835616438
tp2683
a(g2406
F0.3333333333333333
tp2684
a(g1102
F0.32098765432098764
tp2685
a(g276
F0.25396825396825395
tp2686
as(g1
g39
g3
g303
tp2687
(lp2688
(g7
F0.3
tp2689
as(g1
g2
g192
tp2690
(lp2691
(g7
F0.31666666666666665
tp2692
a(g3
F0.273972602739726
tp2693
as(g7
tp2694
(lp2695
(g1
F0.9180327868852459
tp2696
a(g3
F0.8082191780821918
tp2697
a(g44
F0.46511627906976744
tp2698
a(g39
F0.4338235294117647
tp2699
a(g2
F0.42142857142857143
tp2700
a(g46
F0.36363636363636365
tp2701
a(g48
F0.2804878048780488
tp2702
a(g31
F0.26785714285714285
tp2703
a(g50
F0.234375
tp2704
a(g52
F0.20618556701030927
tp2705
as(g117
g113
g114
tp2706
(lp2707
(g163
F0.8888888888888888
tp2708
a(g166
F0.5862068965517241
tp2709
a(g214
F0.3620689655172414
tp2710
a(g112
F0.21333333333333335
tp2711
as(g7
g10
tp2712
(lp2713
(g1
F0.36065573770491804
tp2714
a(g3
F0.3424657534246575
tp2715
as(g2
g7
g3
g303
tp2716
(lp2717
(g1
F0.3114754098360656
tp2718
as(g451
g447
tp2719
(lp2720
(g448
F0.3225806451612903
tp2721
as(g505
tp2722
(lp2723
(g1131
F0.4
tp2724
a(S'exc:hypertensive disease'
p2725
F0.28
tp2726
a(S'exc:diabetes'
p2727
F0.24242424242424243
tp2728
a(g819
F0.23376623376623376
tp2729
as(g9
g1032
tp2730
(lp2731
(g13
F0.27586206896551724
tp2732
a(g15
F0.24615384615384617
tp2733
as(g147
tp2734
(lp2735
(g144
F1.0
tp2736
a(g149
F0.32142857142857145
tp2737
as(g71
g9
g15
tp2738
(lp2739
(g13
F0.3103448275862069
tp2740
as(g1
g7
g39
g46
tp2741
(lp2742
(g3
F0.2191780821917808
tp2743
as(S'inc:infiltration'
p2744
tp2745
(lp2746
(g2663
F0.40384615384615385
tp2747
a(g1628
F0.28019323671497587
tp2748
a(g2527
F0.27225130890052357
tp2749
a(g381
F0.26744186046511625
tp2750
a(g383
F0.2608695652173913
tp2751
a(S'inc:inspired fraction of oxygen'
p2752
F0.2413793103448276
tp2753
a(g316
F0.23880597014925373
tp2754
a(g378
F0.22137404580152673
tp2755
a(g640
F0.20689655172413793
tp2756
a(g423
F0.20689655172413793
tp2757
as(g1771
g1250
tp2758
(lp2759
(g1774
F0.48717948717948717
tp2760
as(g671
g675
g301
tp2761
(lp2762
(g298
F0.5151515151515151
tp2763
as(g1523
g677
tp2764
(lp2765
(g675
F0.5
tp2766
as(g1
g2
g39
g168
tp2767
(lp2768
(g7
F0.26666666666666666
tp2769
a(g3
F0.2191780821917808
tp2770
as(g166
g163
tp2771
(lp2772
(g114
F0.36
tp2773
a(g117
F0.26229508196721313
tp2774
as(g117
g113
g114
g163
tp2775
(lp2776
(g166
F0.5517241379310345
tp2777
as(g29
g37
g31
g32
tp2778
(lp2779
(g35
F0.2459016393442623
tp2780
as(g61
tp2781
(lp2782
(g432
F0.4603174603174603
tp2783
a(g429
F0.20863309352517986
tp2784
a(g428
F0.20833333333333334
tp2785
as(g72
g78
tp2786
(lp2787
(g71
F0.21428571428571427
tp2788
as(g9
g407
tp2789
(lp2790
(g13
F0.3448275862068966
tp2791
a(g15
F0.2923076923076923
tp2792
as(g9
g15
g1032
tp2793
(lp2794
(g13
F0.27586206896551724
tp2795
as(g203
g273
tp2796
(lp2797
(g276
F0.2698412698412698
tp2798
as(g428
S'exc:pharmacologic substance'
p2799
tp2800
(lp2801
(g59
F0.39473684210526316
tp2802
as(g671
g677
g298
tp2803
(lp2804
(g301
F0.47058823529411764
tp2805
as(g7
g4
tp2806
(lp2807
(g1
F0.2459016393442623
tp2808
a(g3
F0.2054794520547945
tp2809
as(g1
g2
g39
g226
tp2810
(lp2811
(g7
F0.3
tp2812
a(g3
F0.2465753424657534
tp2813
as(g1726
g113
tp2814
(lp2815
(g117
F0.2459016393442623
tp2816
as(g35
g29
g30
g31
tp2817
(lp2818
(g37
F0.25
tp2819
a(g32
F0.2328767123287671
tp2820
as(g429
g61
g432
tp2821
(lp2822
(g428
F0.20833333333333334
tp2823
as(g2
g39
g10
g3
tp2824
(lp2825
(g7
F0.38333333333333336
tp2826
a(g1
F0.3442622950819672
tp2827
as(g29
g10
g273
tp2828
(lp2829
(g276
F0.2857142857142857
tp2830
as(g126
g10
g128
tp2831
(lp2832
(g451
F0.24285714285714285
tp2833
a(g129
F0.23376623376623376
tp2834
as(g2
g7
g39
g48
g3
tp2835
(lp2836
(g1
F0.3442622950819672
tp2837
as(g1160
g298
tp2838
(lp2839
(g301
F0.47058823529411764
tp2840
as(g965
tp2841
(lp2842
(g962
F0.8421052631578947
tp2843
as(g196
g276
g10
tp2844
(lp2845
(g273
F0.2087912087912088
tp2846
as(g2
g7
g39
g4
tp2847
(lp2848
(g1
F0.2459016393442623
tp2849
a(g3
F0.2054794520547945
tp2850
as(g10
g13
g407
tp2851
(lp2852
(g9
F0.3148148148148148
tp2853
a(g15
F0.24615384615384617
tp2854
as(g2
g3
g372
tp2855
(lp2856
(g1
F0.2459016393442623
tp2857
as(g1248
g1245
tp2858
(lp2859
(g1244
F0.5675675675675675
tp2860
as(g1
g256
tp2861
(lp2862
(g7
F0.25
tp2863
a(g3
F0.2328767123287671
tp2864
as(g13
g1032
tp2865
(lp2866
(g9
F0.2962962962962963
tp2867
a(g15
F0.24615384615384617
tp2868
as(S'inc:chest'
p2869
g377
g172
tp2870
(lp2871
(g381
F0.20930232558139536
tp2872
as(g29
g37
g30
g32
tp2873
(lp2874
(g1
F0.36065573770491804
tp2875
a(g31
F0.26785714285714285
tp2876
as(g71
g78
tp2877
(lp2878
(g72
F0.22058823529411764
tp2879
a(g3
F0.2054794520547945
tp2880
as(g35
g136
tp2881
(lp2882
(g32
F0.2054794520547945
tp2883
as(g389
g390
tp2884
(lp2885
(g388
F0.7083333333333334
tp2886
a(g393
F0.5
tp2887
as(g2
g367
tp2888
(lp2889
(g1
F0.26229508196721313
tp2890
a(g7
F0.25
tp2891
a(g3
F0.2465753424657534
tp2892
a(g39
F0.2426470588235294
tp2893
as(g2106
S'inc:mechanical ventilation'
p2894
tp2895
(lp2896
(g2339
F0.5333333333333333
tp2897
a(g640
F0.22988505747126436
tp2898
as(g2
g39
g168
g3
tp2899
(lp2900
(g7
F0.2833333333333333
tp2901
a(g1
F0.26229508196721313
tp2902
as(S'exc:sore throat'
p2903
tp2904
(lp2905
(S'exc:sore to touch'
p2906
F1.0
tp2907
as(g226
g1138
tp2908
(lp2909
(S'exc:pulmonary fibrosis'
p2910
F0.6956521739130435
tp2911
a(g132
F0.5789473684210527
tp2912
a(g129
F0.5324675324675324
tp2913
a(g393
F0.4411764705882353
tp2914
a(g655
F0.4375
tp2915
a(g134
F0.4153846153846154
tp2916
a(g480
F0.38636363636363635
tp2917
a(g1087
F0.34375
tp2918
a(g484
F0.33962264150943394
tp2919
a(g482
F0.32
tp2920
a(g337
F0.28
tp2921
a(g1073
F0.25
tp2922
a(g451
F0.24285714285714285
tp2923
a(g329
F0.23943661971830985
tp2924
a(g63
F0.23809523809523808
tp2925
a(g460
F0.23529411764705882
tp2926
a(g660
F0.2328767123287671
tp2927
a(S'exc:oxygen'
p2928
F0.22916666666666666
tp2929
a(g320
F0.2222222222222222
tp2930
a(g140
F0.20812182741116753
tp2931
a(g1093
F0.2054794520547945
tp2932
a(g27
F0.20430107526881722
tp2933
as(g1765
g429
tp2934
(lp2935
(g1762
F0.7272727272727273
tp2936
as(g1
g39
g168
tp2937
(lp2938
(g7
F0.26666666666666666
tp2939
a(g3
F0.2191780821917808
tp2940
as(g2
g7
g39
g10
g3
tp2941
(lp2942
(g1
F0.3442622950819672
tp2943
as(g2
g39
g192
tp2944
(lp2945
(g7
F0.3333333333333333
tp2946
a(g1
F0.32786885245901637
tp2947
a(g3
F0.273972602739726
tp2948
as(g2
g245
tp2949
(lp2950
(g7
F0.25
tp2951
a(g3
F0.2054794520547945
tp2952
as(g166
g114
g163
tp2953
(lp2954
(g117
F0.26229508196721313
tp2955
as(g7
g39
g3
g303
tp2956
(lp2957
(g1
F0.29508196721311475
tp2958
as(g1
g2
g372
tp2959
(lp2960
(g3
F0.2054794520547945
tp2961
as(g39
g44
tp2962
(lp2963
(g7
F0.31666666666666665
tp2964
a(g1
F0.2786885245901639
tp2965
a(g3
F0.2465753424657534
tp2966
a(g1350
F0.2073170731707317
tp2967
a(g2
F0.2
tp2968
as(S'inc:pregnancy tests'
p2969
tp2970
(lp2971
(g88
F1.0
tp2972
a(g543
F0.42
tp2973
a(S'inc:serum'
p2974
F0.38333333333333336
tp2975
a(g178
F0.27586206896551724
tp2976
a(g536
F0.23684210526315788
tp2977
a(g112
F0.22666666666666666
tp2978
as(g1
g103
g3
tp2979
(lp2980
(g7
F0.3
tp2981
as(g30
tp2982
(lp2983
(g31
F1.0
tp2984
a(g44
F0.5581395348837209
tp2985
a(g1
F0.39344262295081966
tp2986
a(g46
F0.38636363636363635
tp2987
a(g7
F0.38333333333333336
tp2988
a(g3
F0.3698630136986301
tp2989
a(g136
F0.35714285714285715
tp2990
a(g245
F0.328125
tp2991
a(g2
F0.2785714285714286
tp2992
a(g39
F0.2647058823529412
tp2993
a(g212
F0.2191780821917808
tp2994
as(g9
g15
tp2995
(lp2996
(g13
F0.8620689655172413
tp2997
a(g407
F0.20430107526881722
tp2998
as(g172
g378
tp2999
(lp3000
(g383
F0.31521739130434784
tp3001
a(g381
F0.27906976744186046
tp3002
a(g333
F0.26881720430107525
tp3003
a(g929
F0.23275862068965517
tp3004
as(g1
g7
g4
tp3005
(lp3006
(g3
F0.2054794520547945
tp3007
as(g1919
tp3008
(lp3009
(g254
F1.0
tp3010
a(g1724
F0.9444444444444444
tp3011
a(g251
F0.9411764705882353
tp3012
a(g554
F0.9230769230769231
tp3013
a(g1643
F0.7894736842105263
tp3014
a(S'inc:hepatic'
p3015
F0.75
tp3016
a(g532
F0.6
tp3017
a(g98
F0.5666666666666667
tp3018
a(g462
F0.4594594594594595
tp3019
a(g534
F0.4186046511627907
tp3020
a(g465
F0.39
tp3021
a(S'inc:aspartate transaminase'
p3022
F0.38461538461538464
tp3023
a(g117
F0.36065573770491804
tp3024
a(g114
F0.36
tp3025
a(g180
F0.3448275862068966
tp3026
a(g18
F0.2872340425531915
tp3027
a(g178
F0.27586206896551724
tp3028
a(g536
F0.25
tp3029
a(g327
F0.20238095238095238
tp3030
a(g871
F0.2
tp3031
as(g101
g98
tp3032
(lp3033
(g97
F0.3
tp3034
as(g10
g212
tp3035
(lp3036
(g1102
F0.2839506172839506
tp3037
a(g208
F0.2517985611510791
tp3038
a(g276
F0.23809523809523808
tp3039
a(g451
F0.22857142857142856
tp3040
a(g492
F0.2054794520547945
tp3041
as(g39
g192
tp3042
(lp3043
(g7
F0.3333333333333333
tp3044
a(g1
F0.32786885245901637
tp3045
a(g2
F0.2857142857142857
tp3046
a(g3
F0.273972602739726
tp3047
as(g7
g44
tp3048
(lp3049
(g1
F0.29508196721311475
tp3050
a(g3
F0.2602739726027397
tp3051
as(g3
g4
tp3052
(lp3053
(g7
F0.25
tp3054
a(g1
F0.2459016393442623
tp3055
as(g17
tp3056
(lp3057
(g21
F0.3793103448275862
tp3058
a(g534
F0.3488372093023256
tp3059
a(g18
F0.2127659574468085
tp3060
as(g1015
tp3061
(lp3062
(g1012
F0.3191489361702128
tp3063
as(g581
g144
g149
tp3064
(lp3065
(g147
F0.5
tp3066
as(S'exc:pharmacologic substance'
p3067
g418
tp3068
(lp3069
(g415
F0.425
tp3070
a(g322
F0.2698412698412698
tp3071
as(g9
g15
g407
tp3072
(lp3073
(g13
F0.3275862068965517
tp3074
as(g128
g129
tp3075
(lp3076
(g132
F1.0
tp3077
a(g134
F0.6153846153846154
tp3078
a(g505
F0.375
tp3079
a(g127
F0.21428571428571427
tp3080
a(g337
F0.2
tp3081
as(g29
g32
tp3082
(lp3083
(g1
F1.0
tp3084
a(g7
F0.9666666666666667
tp3085
a(g44
F0.46511627906976744
tp3086
a(g39
F0.4338235294117647
tp3087
a(g136
F0.40476190476190477
tp3088
a(g46
F0.36363636363636365
tp3089
a(g48
F0.3048780487804878
tp3090
a(g31
F0.30357142857142855
tp3091
a(g245
F0.234375
tp3092
a(g52
F0.2268041237113402
tp3093
a(g316
F0.22388059701492538
tp3094
as(g2
g256
g3
tp3095
(lp3096
(g1
F0.2786885245901639
tp3097
a(g7
F0.25
tp3098
as(g10
g1595
tp3099
(lp3100
(g1598
F1.0
tp3101
as(g423
g698
tp3102
(lp3103
(g381
F0.20930232558139536
tp3104
as(g2
g39
g103
tp3105
(lp3106
(g7
F0.3
tp3107
a(g1
F0.29508196721311475
tp3108
a(g3
F0.2465753424657534
tp3109
as(g59
g2799
tp3110
(lp3111
(g428
F0.20833333333333334
tp3112
as(g7
g50
tp3113
(lp3114
(g3
F0.2054794520547945
tp3115
as(g1
g39
g3
tp3116
(lp3117
(g7
F0.9166666666666666
tp3118
a(g2
F0.4
tp3119
a(g44
F0.3953488372093023
tp3120
a(g46
F0.36363636363636365
tp3121
a(g48
F0.2682926829268293
tp3122
a(g31
F0.26785714285714285
tp3123
a(g52
F0.20618556701030927
tp3124
as(g1
g2
g168
tp3125
(lp3126
(g7
F0.2833333333333333
tp3127
a(g3
F0.2328767123287671
tp3128
as(g1
g2
g168
g3
tp3129
(lp3130
(g7
F0.2833333333333333
tp3131
as(g2
g7
g39
g192
g3
tp3132
(lp3133
(g1
F0.3114754098360656
tp3134
as(g7
g39
g50
tp3135
(lp3136
(g3
F0.2054794520547945
tp3137
as(g2398
tp3138
(lp3139
(S'exc:retinal diseases'
p3140
F0.2054794520547945
tp3141
as(g1598
tp3142
(lp3143
(g1595
F0.9642857142857143
tp3144
as(g1083
g1032
tp3145
(lp3146
(g337
F0.2
tp3147
as(g399
tp3148
(lp3149
(g780
F0.8181818181818182
tp3150
a(g398
F0.782608695652174
tp3151
a(g21
F0.29310344827586204
tp3152
as(g35
g29
g196
g30
g31
tp3153
(lp3154
(g32
F0.2054794520547945
tp3155
as(g196
g30
g31
g32
tp3156
(lp3157
(g35
F0.2459016393442623
tp3158
as(g2172
tp3159
(lp3160
(g1771
F0.5945945945945946
tp3161
a(g1774
F0.5897435897435898
tp3162
a(g61
F0.5862068965517241
tp3163
a(g63
F0.5555555555555556
tp3164
a(g90
F0.5294117647058824
tp3165
a(S'exc:immunocompromised host'
p3166
F0.5
tp3167
a(g318
F0.4676258992805755
tp3168
a(g480
F0.45454545454545453
tp3169
a(g329
F0.4507042253521127
tp3170
a(g314
F0.4418604651162791
tp3171
a(g2304
F0.42857142857142855
tp3172
a(g337
F0.4266666666666667
tp3173
a(g222
F0.41379310344827586
tp3174
a(g1083
F0.3939393939393939
tp3175
a(g219
F0.3870967741935484
tp3176
a(g134
F0.38461538461538464
tp3177
a(g129
F0.37662337662337664
tp3178
a(g320
F0.375
tp3179
a(g276
F0.36507936507936506
tp3180
a(g484
F0.3584905660377358
tp3181
a(g1760
F0.35714285714285715
tp3182
a(g505
F0.3541666666666667
tp3183
a(g1354
F0.345679012345679
tp3184
a(g954
F0.3446601941747573
tp3185
a(g316
F0.34328358208955223
tp3186
a(g46
F0.3409090909090909
tp3187
a(g27
F0.3333333333333333
tp3188
a(g24
F0.3142857142857143
tp3189
a(g451
F0.3142857142857143
tp3190
a(g655
F0.3125
tp3191
a(g224
F0.3125
tp3192
a(g324
F0.3114754098360656
tp3193
a(g482
F0.3
tp3194
a(g9
F0.2962962962962963
tp3195
a(g13
F0.29310344827586204
tp3196
a(g1087
F0.28125
tp3197
a(g245
F0.28125
tp3198
a(g15
F0.27692307692307694
tp3199
a(g1093
F0.273972602739726
tp3200
a(g660
F0.273972602739726
tp3201
a(g226
F0.2706766917293233
tp3202
a(g1104
F0.26373626373626374
tp3203
a(g322
F0.25396825396825395
tp3204
a(g1073
F0.25
tp3205
a(g10
F0.24
tp3206
a(g331
F0.2331288343558282
tp3207
a(g3
F0.2328767123287671
tp3208
a(g1048
F0.23255813953488372
tp3209
a(g1350
F0.23170731707317074
tp3210
a(g2928
F0.22916666666666666
tp3211
a(g39
F0.22058823529411764
tp3212
a(g383
F0.21739130434782608
tp3213
a(g113
F0.21256038647342995
tp3214
a(g418
F0.2111111111111111
tp3215
a(g161
F0.2087912087912088
tp3216
a(g2
F0.20714285714285716
tp3217
a(g2578
F0.20689655172413793
tp3218
a(g333
F0.20430107526881722
tp3219
a(g1693
F0.20175438596491227
tp3220
as(g7
g39
g46
g3
tp3221
(lp3222
(g1
F0.26229508196721313
tp3223
as(g35
g29
g30
g32
tp3224
(lp3225
(g7
F0.36666666666666664
tp3226
a(g31
F0.30357142857142855
tp3227
as(g2
g7
g39
g367
tp3228
(lp3229
(g3
F0.2054794520547945
tp3230
as(g2052
tp3231
(lp3232
(g329
F0.23943661971830985
tp3233
as(g72
g13
tp3234
(lp3235
(g9
F0.35185185185185186
tp3236
a(g15
F0.27692307692307694
tp3237
as(g7
g103
tp3238
(lp3239
(g1
F0.29508196721311475
tp3240
a(g3
F0.2465753424657534
tp3241
as(g2
g7
g39
g103
tp3242
(lp3243
(g1
F0.29508196721311475
tp3244
a(g3
F0.2465753424657534
tp3245
as(g337
g1032
tp3246
(lp3247
(g1083
F0.22727272727272727
tp3248
as(g29
g196
tp3249
(lp3250
(g7
F0.9666666666666667
tp3251
a(g1
F0.9180327868852459
tp3252
a(g3
F0.8082191780821918
tp3253
a(g44
F0.6511627906976745
tp3254
a(g46
F0.4772727272727273
tp3255
a(g136
F0.47619047619047616
tp3256
a(g1350
F0.4146341463414634
tp3257
a(g31
F0.39285714285714285
tp3258
a(g1760
F0.35714285714285715
tp3259
a(g1057
F0.3541666666666667
tp3260
a(g316
F0.3283582089552239
tp3261
a(g245
F0.328125
tp3262
a(g276
F0.31746031746031744
tp3263
a(g13
F0.3103448275862069
tp3264
a(g15
F0.3076923076923077
tp3265
a(g1104
F0.2967032967032967
tp3266
a(g9
F0.2962962962962963
tp3267
a(g78
F0.28846153846153844
tp3268
a(g63
F0.2698412698412698
tp3269
a(g936
F0.25773195876288657
tp3270
a(g543
F0.25
tp3271
a(S'exc:mechanical ventilation'
p3272
F0.24539877300613497
tp3273
a(g418
F0.24444444444444444
tp3274
a(g168
F0.2302158273381295
tp3275
a(g224
F0.225
tp3276
a(g660
F0.2191780821917808
tp3277
a(g222
F0.21551724137931033
tp3278
a(g333
F0.21505376344086022
tp3279
a(S'inc:nose'
p3280
F0.2111111111111111
tp3281
a(g303
F0.21
tp3282
a(g103
F0.20348837209302326
tp3283
a(g10
F0.2
tp3284
as(S'exc:immunologic deficiency syndromes'
p3285
g899
tp3286
(lp3287
(g61
F0.5862068965517241
tp3288
a(g314
F0.3953488372093023
tp3289
as(g7
g39
g256
g3
tp3290
(lp3291
(g1
F0.2459016393442623
tp3292
as(g10
g451
g447
tp3293
(lp3294
(g448
F0.3225806451612903
tp3295
as(g126
g127
g128
g129
g132
tp3296
(lp3297
(g134
F0.23076923076923078
tp3298
as(g2182
tp3299
(lp3300
(g206
F1.0
tp3301
a(g1102
F0.2222222222222222
tp3302
a(g212
F0.2191780821917808
tp3303
as(g31
g128
tp3304
(lp3305
(g30
F0.2073170731707317
tp3306
as(g126
g128
g132
tp3307
(lp3308
(g134
F0.3230769230769231
tp3309
a(g129
F0.2857142857142857
tp3310
as(g37
g30
g31
tp3311
(lp3312
(g35
F0.2459016393442623
tp3313
a(g32
F0.2054794520547945
tp3314
as(g480
tp3315
(lp3316
(g482
F0.3
tp3317
a(g655
F0.23214285714285715
tp3318
a(g1590
F0.2054794520547945
tp3319
as(S'exc:hiv'
p3320
g790
tp3321
(lp3322
(g61
F0.5862068965517241
tp3323
a(g63
F0.42857142857142855
tp3324
a(g1760
F0.35714285714285715
tp3325
a(g316
F0.29850746268656714
tp3326
a(g222
F0.2413793103448276
tp3327
a(g320
F0.2361111111111111
tp3328
as(g1
g2
g3
g303
tp3329
(lp3330
(g7
F0.31666666666666665
tp3331
as(g73
g333
tp3332
(lp3333
(g2663
F0.3557692307692308
tp3334
as(g2505
tp3335
(lp3336
(g2498
F0.3125
tp3337
a(S'exc:arteries'
p3338
F0.234375
tp3339
as(g163
tp3340
(lp3341
(g166
F0.6206896551724138
tp3342
a(g114
F0.36
tp3343
a(g117
F0.26229508196721313
tp3344
as(g492
g10
tp3345
(lp3346
(g15
F0.23076923076923078
tp3347
a(g451
F0.21428571428571427
tp3348
a(g212
F0.2054794520547945
tp3349
as(S'exc:chloroquine'
p3350
S'exc:hydroxychloroquine'
p3351
tp3352
(lp3353
(g2182
F0.48484848484848486
tp3354
a(g729
F0.4375
tp3355
a(g212
F0.410958904109589
tp3356
a(g660
F0.2465753424657534
tp3357
a(g15
F0.24615384615384617
tp3358
a(g1285
F0.20430107526881722
tp3359
as(g1
g7
g39
g3
tp3360
(lp3361
(g44
F0.3953488372093023
tp3362
a(g2
F0.39285714285714285
tp3363
a(g46
F0.36363636363636365
tp3364
a(g48
F0.25609756097560976
tp3365
a(g52
F0.20618556701030927
tp3366
as(g168
g1771
tp3367
(lp3368
(g1774
F0.41025641025641024
tp3369
as(g72
g15
g13
tp3370
(lp3371
(g9
F0.3333333333333333
tp3372
as(g333
g1628
tp3373
(lp3374
(g381
F0.23255813953488372
tp3375
a(g383
F0.22826086956521738
tp3376
a(g2663
F0.20192307692307693
tp3377
as(g196
g31
tp3378
(lp3379
(g30
F0.2926829268292683
tp3380
a(g35
F0.2459016393442623
tp3381
a(g32
F0.2054794520547945
tp3382
as(g128
g129
g132
g985
tp3383
(lp3384
(g134
F0.26153846153846155
tp3385
as(g15
g407
tp3386
(lp3387
(g9
F0.35185185185185186
tp3388
a(g13
F0.3275862068965517
tp3389
as(g1
g7
g39
g168
tp3390
(lp3391
(g3
F0.2191780821917808
tp3392
as(g71
g15
tp3393
(lp3394
(g9
F0.3333333333333333
tp3395
a(g13
F0.3103448275862069
tp3396
as(g15
g119
g10
tp3397
(lp3398
(g9
F0.2962962962962963
tp3399
a(g13
F0.27586206896551724
tp3400
as(S'exc:medical contraindication'
p3401
tp3402
(lp3403
(g1657
F0.4489795918367347
tp3404
a(S'exc:blood transfusion'
p3405
F0.36666666666666664
tp3406
a(g212
F0.2054794520547945
tp3407
as(g428
g61
tp3408
(lp3409
(g432
F0.23809523809523808
tp3410
as(g134
g132
g985
tp3411
(lp3412
(g129
F0.22077922077922077
tp3413
as(g226
g3
tp3414
(lp3415
(g7
F0.3333333333333333
tp3416
a(g1
F0.3114754098360656
tp3417
as(g2
g7
g39
g44
tp3418
(lp3419
(g1
F0.2786885245901639
tp3420
a(g3
F0.2465753424657534
tp3421
as(g35
g37
tp3422
(lp3423
(g3
F0.7671232876712328
tp3424
a(g44
F0.4186046511627907
tp3425
a(g39
F0.40441176470588236
tp3426
a(g2
F0.4
tp3427
a(g46
F0.36363636363636365
tp3428
a(g48
F0.2682926829268293
tp3429
a(g31
F0.26785714285714285
tp3430
a(g52
F0.20618556701030927
tp3431
as(g7
g52
tp3432
(lp3433
(g1
F0.32786885245901637
tp3434
a(g3
F0.273972602739726
tp3435
as(g31
g81
tp3436
(lp3437
(g30
F0.23170731707317074
tp3438
as(g7
g168
g3
tp3439
(lp3440
(g1
F0.2786885245901639
tp3441
as(g353
g516
g172
tp3442
(lp3443
(g114
F0.36
tp3444
a(g180
F0.27586206896551724
tp3445
as(g1774
tp3446
(lp3447
(g1248
F1.0
tp3448
a(g1771
F0.972972972972973
tp3449
a(g1250
F0.28169014084507044
tp3450
a(S'exc:immunologic deficiency syndromes'
p3451
F0.23809523809523808
tp3452
as(g2
g7
g256
tp3453
(lp3454
(g1
F0.2459016393442623
tp3455
a(g3
F0.2054794520547945
tp3456
as(g73
g2894
tp3457
(lp3458
(g333
F0.20430107526881722
tp3459
as(g1131
g819
tp3460
(lp3461
(g132
F0.9736842105263158
tp3462
a(g505
F0.3125
tp3463
as(g671
g677
tp3464
(lp3465
(g675
F0.5666666666666667
tp3466
a(g298
F0.48484848484848486
tp3467
a(g301
F0.47058823529411764
tp3468
as(g29
g273
tp3469
(lp3470
(g276
F0.2857142857142857
tp3471
as(S'exc:malignant neoplasms'
p3472
g1771
tp3473
(lp3474
(g1774
F0.5641025641025641
tp3475
as(g147
g581
g149
tp3476
(lp3477
(g144
F0.5555555555555556
tp3478
as(g29
g196
g10
g273
tp3479
(lp3480
(g276
F0.2857142857142857
tp3481
as(g393
g226
tp3482
(lp3483
(g388
F0.8333333333333334
tp3484
a(g390
F0.34375
tp3485
a(g389
F0.34
tp3486
a(g474
F0.2328767123287671
tp3487
as(g629
tp3488
(lp3489
(g451
F0.22857142857142856
tp3490
as(g1
g2
g7
g256
tp3491
(lp3492
(g3
F0.2054794520547945
tp3493
as(g1
g2
g4
tp3494
(lp3495
(g7
F0.25
tp3496
a(g3
F0.2054794520547945
tp3497
as(g2
g39
g3
g4
tp3498
(lp3499
(g7
F0.25
tp3500
a(g1
F0.2459016393442623
tp3501
as(g59
g57
tp3502
(lp3503
(g320
F0.2361111111111111
tp3504
as(g1
g2
g7
g10
tp3505
(lp3506
(g3
F0.3013698630136986
tp3507
as(g9
g15
g10
g286
tp3508
(lp3509
(g13
F0.39655172413793105
tp3510
as(g1
g3
tp3511
(lp3512
(g7
F0.9333333333333333
tp3513
a(g44
F0.4418604651162791
tp3514
a(g2
F0.4357142857142857
tp3515
a(g39
F0.4117647058823529
tp3516
a(g46
F0.36363636363636365
tp3517
a(g136
F0.35714285714285715
tp3518
a(g31
F0.30357142857142855
tp3519
a(g48
F0.2926829268292683
tp3520
a(g52
F0.21649484536082475
tp3521
as(g72
g9
g15
tp3522
(lp3523
(g13
F0.3103448275862069
tp3524
as(g72
g15
g10
tp3525
(lp3526
(g9
F0.2777777777777778
tp3527
a(g13
F0.25862068965517243
tp3528
as(g44
g3
tp3529
(lp3530
(g7
F0.31666666666666665
tp3531
a(g1
F0.3114754098360656
tp3532
as(g101
g254
tp3533
(lp3534
(g251
F0.9411764705882353
tp3535
as(g1719
g214
tp3536
(lp3537
(g1890
F0.2459016393442623
tp3538
as(g39
g52
tp3539
(lp3540
(g7
F0.3333333333333333
tp3541
a(g1
F0.32786885245901637
tp3542
a(g3
F0.273972602739726
tp3543
as(g222
S'exc:pharmacologic substance'
p3544
tp3545
(lp3546
(g224
F0.2125
tp3547
as(g1523
tp3548
(lp3549
(g675
F0.6333333333333333
tp3550
a(g677
F0.4857142857142857
tp3551
as(g1
g2
g192
g3
tp3552
(lp3553
(g7
F0.31666666666666665
tp3554
as(g128
S'inc:inspired fraction of oxygen'
p3555
tp3556
(lp3557
(g324
F0.2459016393442623
tp3558
as(S'exc:mechanical ventilation'
p3559
g511
tp3560
(lp3561
(g322
F0.30158730158730157
tp3562
as(g1248
tp3563
(lp3564
(g1244
F0.5675675675675675
tp3565
a(g1245
F0.5384615384615384
tp3566
as(g423
g378
tp3567
(lp3568
(g383
F0.2717391304347826
tp3569
a(g381
F0.2441860465116279
tp3570
a(g333
F0.20430107526881722
tp3571
as(g1438
g1435
tp3572
(lp3573
(g1434
F0.38461538461538464
tp3574
as(g37
g31
tp3575
(lp3576
(g35
F0.2459016393442623
tp3577
a(g32
F0.2054794520547945
tp3578
as(g1523
g675
tp3579
(lp3580
(g677
F0.42857142857142855
tp3581
as(g1990
tp3582
(lp3583
(g1339
F0.26153846153846155
tp3584
as(g196
g31
g32
tp3585
(lp3586
(g35
F0.2459016393442623
tp3587
as(g272
g273
tp3588
(lp3589
(g276
F0.25396825396825395
tp3590
as(g166
g465
g113
tp3591
(lp3592
(g114
F0.3
tp3593
as(g226
g2277
tp3594
(lp3595
(g63
F0.2698412698412698
tp3596
a(g655
F0.22321428571428573
tp3597
a(g320
F0.20833333333333334
tp3598
as(g136
g32
tp3599
(lp3600
(g35
F0.2459016393442623
tp3601
as(g245
tp3602
(lp3603
(g44
F0.3488372093023256
tp3604
a(g418
F0.3
tp3605
a(g1350
F0.25609756097560976
tp3606
a(g7
F0.25
tp3607
a(g1073
F0.25
tp3608
a(g3
F0.2328767123287671
tp3609
as(g660
g126
tp3610
(lp3611
(g393
F0.5
tp3612
a(g480
F0.3409090909090909
tp3613
a(g484
F0.33962264150943394
tp3614
a(g203
F0.20863309352517986
tp3615
a(g486
F0.2054794520547945
tp3616
a(g492
F0.2054794520547945
tp3617
as(g9
g15
g10
g407
tp3618
(lp3619
(g13
F0.27586206896551724
tp3620
as(g35
g30
g31
g32
tp3621
(lp3622
(g37
F0.25
tp3623
as(g1
g7
g39
g10
tp3624
(lp3625
(g3
F0.2876712328767123
tp3626
as(g2974
tp3627
(lp3628
(S'inc:pregnancy tests'
p3629
F0.27380952380952384
tp3630
as(g1229
tp3631
(lp3632
(g1225
F1.0
tp3633
as(g1
g7
g39
g44
tp3634
(lp3635
(g3
F0.2328767123287671
tp3636
as(g2
g46
tp3637
(lp3638
(g7
F0.26666666666666666
tp3639
a(g1
F0.26229508196721313
tp3640
a(g3
F0.2191780821917808
tp3641
as(g126
g128
g129
g132
tp3642
(lp3643
(g134
F0.3230769230769231
tp3644
as(g2
g7
g46
tp3645
(lp3646
(g1
F0.26229508196721313
tp3647
a(g3
F0.2191780821917808
tp3648
as(g9
g10
g407
tp3649
(lp3650
(g13
F0.29310344827586204
tp3651
a(g15
F0.24615384615384617
tp3652
as(g428
g1226
tp3653
(lp3654
(g59
F0.42105263157894735
tp3655
as(g10
g128
tp3656
(lp3657
(g505
F0.3541666666666667
tp3658
a(g451
F0.32857142857142857
tp3659
a(g1093
F0.3150684931506849
tp3660
a(g129
F0.3116883116883117
tp3661
a(g276
F0.25396825396825395
tp3662
a(g1104
F0.2087912087912088
tp3663
as(g1219
g2581
g1220
tp3664
(lp3665
(g1223
F0.37777777777777777
tp3666
as(g30
g128
tp3667
(lp3668
(g31
F0.30357142857142855
tp3669
as(g129
g140
tp3670
(lp3671
(g134
F0.23076923076923078
tp3672
as(g15
g10
g13
tp3673
(lp3674
(g9
F0.7592592592592593
tp3675
as(g29
g31
tp3676
(lp3677
(g30
F0.3048780487804878
tp3678
a(g35
F0.2786885245901639
tp3679
a(g37
F0.25
tp3680
a(g32
F0.2328767123287671
tp3681
as(g126
g128
g129
tp3682
(lp3683
(g132
F0.5789473684210527
tp3684
a(g134
F0.35384615384615387
tp3685
a(g127
F0.21428571428571427
tp3686
as(g969
tp3687
(lp3688
(g178
F0.27586206896551724
tp3689
as(g209
g140
tp3690
(lp3691
(g27
F0.3010752688172043
tp3692
a(g451
F0.2571428571428571
tp3693
a(g318
F0.2158273381294964
tp3694
a(g337
F0.2
tp3695
as(g208
g10
tp3696
(lp3697
(g2182
F0.5454545454545454
tp3698
a(g212
F0.4794520547945205
tp3699
a(g729
F0.4791666666666667
tp3700
a(g1102
F0.4074074074074074
tp3701
a(g276
F0.38095238095238093
tp3702
a(g2406
F0.35555555555555557
tp3703
a(g15
F0.26153846153846155
tp3704
a(g660
F0.2602739726027397
tp3705
a(g1104
F0.24175824175824176
tp3706
a(g1093
F0.2328767123287671
tp3707
a(g451
F0.22857142857142856
tp3708
a(g27
F0.21505376344086022
tp3709
as(g61
g899
tp3710
(lp3711
(g432
F0.2698412698412698
tp3712
as(g311
tp3713
(lp3714
(g224
F0.2375
tp3715
as(g671
g675
g298
tp3716
(lp3717
(g301
F0.5
tp3718
as(g1332
tp3719
(lp3720
(g1987
F0.23076923076923078
tp3721
a(S'exc:hepatic'
p3722
F0.2054794520547945
tp3723
as(g10
g13
g722
tp3724
(lp3725
(g9
F0.2777777777777778
tp3726
a(g15
F0.23076923076923078
tp3727
as(g134
g126
g128
g132
tp3728
(lp3729
(g129
F0.2727272727272727
tp3730
as(g7
g39
g3
g52
tp3731
(lp3732
(g1
F0.32786885245901637
tp3733
as(g226
g926
tp3734
(lp3735
(g655
F0.20535714285714285
tp3736
as(g1
g2
g39
g103
tp3737
(lp3738
(g7
F0.3
tp3739
a(g3
F0.2465753424657534
tp3740
as(g320
g57
tp3741
(lp3742
(g59
F0.4473684210526316
tp3743
as(g273
tp3744
(lp3745
(S'exc:peritoneal dialysis'
p3746
F1.0
tp3747
a(S'exc:peritoneal'
p3748
F0.9411764705882353
tp3749
a(g276
F0.6349206349206349
tp3750
a(g2406
F0.3333333333333333
tp3751
a(g10
F0.28
tp3752
a(g9
F0.2777777777777778
tp3753
a(g15
F0.26153846153846155
tp3754
a(g13
F0.25862068965517243
tp3755
a(g329
F0.2535211267605634
tp3756
a(g196
F0.23529411764705882
tp3757
a(g212
F0.2328767123287671
tp3758
a(g367
F0.22285714285714286
tp3759
a(g660
F0.2191780821917808
tp3760
as(g128
tp3761
(lp3762
(g2910
F1.0
tp3763
a(g1229
F1.0
tp3764
a(g132
F1.0
tp3765
a(g1225
F1.0
tp3766
a(S'exc:interstitial'
p3767
F0.9411764705882353
tp3768
a(S'exc:infiltration'
p3769
F0.9375
tp3770
a(g129
F0.922077922077922
tp3771
a(g1490
F0.8571428571428571
tp3772
a(g1487
F0.8571428571428571
tp3773
a(g134
F0.7384615384615385
tp3774
a(S'exc:respiration disorders'
p3775
F0.7307692307692307
tp3776
a(g505
F0.5833333333333334
tp3777
a(g2341
F0.5476190476190477
tp3778
a(g2339
F0.5
tp3779
a(g337
F0.49333333333333335
tp3780
a(g1073
F0.484375
tp3781
a(g393
F0.47058823529411764
tp3782
a(g460
F0.45588235294117646
tp3783
a(S'exc:vasoconstrictor agents'
p3784
F0.4444444444444444
tp3785
a(g655
F0.4375
tp3786
a(S'exc:chest'
p3787
F0.43548387096774194
tp3788
a(g2928
F0.4305555555555556
tp3789
a(g2304
F0.42857142857142855
tp3790
a(S'exc:intestines'
p3791
F0.42105263157894735
tp3792
a(g59
F0.42105263157894735
tp3793
a(g46
F0.4090909090909091
tp3794
a(g480
F0.4090909090909091
tp3795
a(g178
F0.39655172413793105
tp3796
a(g1087
F0.390625
tp3797
a(g320
F0.3888888888888889
tp3798
a(g482
F0.38
tp3799
a(g629
F0.37777777777777777
tp3800
a(g335
F0.37333333333333335
tp3801
a(g126
F0.37218045112781956
tp3802
a(g329
F0.36619718309859156
tp3803
a(S'exc:inspired fraction of oxygen'
p3804
F0.3617021276595745
tp3805
a(g324
F0.36065573770491804
tp3806
a(g140
F0.3604060913705584
tp3807
a(g1093
F0.3561643835616438
tp3808
a(g2505
F0.35294117647058826
tp3809
a(g44
F0.3488372093023256
tp3810
a(g484
F0.33962264150943394
tp3811
a(g63
F0.3333333333333333
tp3812
a(g158
F0.3333333333333333
tp3813
a(g451
F0.32857142857142857
tp3814
a(g245
F0.328125
tp3815
a(g322
F0.31746031746031744
tp3816
a(g1661
F0.3125
tp3817
a(g1354
F0.30864197530864196
tp3818
a(g1350
F0.3048780487804878
tp3819
a(g31
F0.30357142857142855
tp3820
a(g540
F0.3
tp3821
a(g316
F0.29850746268656714
tp3822
a(S'inc:mild adverse event'
p3823
F0.296875
tp3824
a(g318
F0.2949640287769784
tp3825
a(g222
F0.29310344827586204
tp3826
a(g186
F0.29310344827586204
tp3827
a(g331
F0.2822085889570552
tp3828
a(g24
F0.2742857142857143
tp3829
a(g149
F0.27380952380952384
tp3830
a(g1083
F0.2727272727272727
tp3831
a(g2974
F0.26666666666666666
tp3832
a(g2578
F0.25862068965517243
tp3833
a(g27
F0.25806451612903225
tp3834
a(g418
F0.25555555555555554
tp3835
a(g276
F0.25396825396825395
tp3836
a(g1104
F0.25274725274725274
tp3837
a(g224
F0.25
tp3838
a(g333
F0.24731182795698925
tp3839
a(g543
F0.24
tp3840
a(g536
F0.23684210526315788
tp3841
a(g660
F0.2328767123287671
tp3842
a(g10
F0.23272727272727273
tp3843
a(g1048
F0.23255813953488372
tp3844
a(g381
F0.22093023255813954
tp3845
a(g465
F0.22
tp3846
a(g3
F0.2191780821917808
tp3847
a(g2894
F0.21323529411764705
tp3848
a(g39
F0.21323529411764705
tp3849
a(g3280
F0.2111111111111111
tp3850
a(g2
F0.20714285714285716
tp3851
a(g929
F0.20689655172413793
tp3852
a(g936
F0.20618556701030927
tp3853
a(g638
F0.20610687022900764
tp3854
a(S'inc:chest'
p3855
F0.20418848167539266
tp3856
a(g18
F0.20212765957446807
tp3857
a(g78
F0.20192307692307693
tp3858
as(g1
g39
g192
tp3859
(lp3860
(g7
F0.31666666666666665
tp3861
a(g3
F0.273972602739726
tp3862
as(g71
g9
g13
tp3863
(lp3864
(g15
F0.27692307692307694
tp3865
as(g1
g2
g3
tp3866
(lp3867
(g7
F0.9333333333333333
tp3868
a(g44
F0.4418604651162791
tp3869
a(g39
F0.4117647058823529
tp3870
a(g46
F0.36363636363636365
tp3871
a(g136
F0.35714285714285715
tp3872
a(g31
F0.30357142857142855
tp3873
a(g48
F0.2926829268292683
tp3874
a(g52
F0.21649484536082475
tp3875
as(g73
g2569
tp3876
(lp3877
(g333
F0.3978494623655914
tp3878
a(g316
F0.23880597014925373
tp3879
a(g3
F0.2191780821917808
tp3880
as(g10
g13
tp3881
(lp3882
(g9
F0.7777777777777778
tp3883
a(g15
F0.6307692307692307
tp3884
a(g407
F0.20430107526881722
tp3885
as(g71
g72
g13
tp3886
(lp3887
(g9
F0.2962962962962963
tp3888
a(g15
F0.23076923076923078
tp3889
as(g13
g286
g407
tp3890
(lp3891
(g9
F0.3148148148148148
tp3892
a(g15
F0.24615384615384617
tp3893
as(g39
g103
g3
tp3894
(lp3895
(g7
F0.3
tp3896
a(g1
F0.29508196721311475
tp3897
as(S'inc:mechanical ventilation'
p3898
tp3899
(lp3900
(g2339
F0.6333333333333333
tp3901
a(g640
F0.40229885057471265
tp3902
a(g2106
F0.3275862068965517
tp3903
a(g149
F0.30952380952380953
tp3904
a(g333
F0.2903225806451613
tp3905
a(g324
F0.26229508196721313
tp3906
a(g78
F0.25
tp3907
a(g1629
F0.22
tp3908
a(g3280
F0.2111111111111111
tp3909
as(g7
g39
g103
tp3910
(lp3911
(g1
F0.29508196721311475
tp3912
a(g3
F0.2465753424657534
tp3913
as(g7
g192
tp3914
(lp3915
(g1
F0.3114754098360656
tp3916
a(g3
F0.2602739726027397
tp3917
as(S'exc:liver'
p3918
tp3919
(lp3920
(S'exc:liver function'
p3921
F0.9375
tp3922
a(S'exc:liver dysfunction'
p3923
F0.8888888888888888
tp3924
a(S'exc:liver cirrhosis'
p3925
F0.8888888888888888
tp3926
a(g27
F0.8709677419354839
tp3927
a(g2425
F0.8
tp3928
a(g1332
F0.6829268292682927
tp3929
a(g629
F0.6444444444444445
tp3930
a(g451
F0.6428571428571429
tp3931
a(S'exc:hemodialysis'
p3932
F0.5333333333333333
tp3933
a(g9
F0.5185185185185185
tp3934
a(S'exc:long qt syndrome'
p3935
F0.5172413793103449
tp3936
a(g13
F0.5172413793103449
tp3937
a(g2401
F0.4864864864864865
tp3938
a(g1774
F0.46153846153846156
tp3939
a(g276
F0.4603174603174603
tp3940
a(g1771
F0.4594594594594595
tp3941
a(g15
F0.4461538461538462
tp3942
a(g1104
F0.42857142857142855
tp3943
a(g10
F0.41818181818181815
tp3944
a(g212
F0.410958904109589
tp3945
a(g320
F0.4027777777777778
tp3946
a(g329
F0.38028169014084506
tp3947
a(g729
F0.375
tp3948
a(g460
F0.3382352941176471
tp3949
a(g39
F0.33088235294117646
tp3950
a(g655
F0.33035714285714285
tp3951
a(g1342
F0.3220338983050847
tp3952
a(g1354
F0.32098765432098764
tp3953
a(g337
F0.32
tp3954
a(g505
F0.3125
tp3955
a(g1073
F0.3125
tp3956
a(g226
F0.3082706766917293
tp3957
a(g31
F0.30357142857142855
tp3958
a(g318
F0.302158273381295
tp3959
a(g1102
F0.2962962962962963
tp3960
a(g1350
F0.2926829268292683
tp3961
a(g1339
F0.2923076923076923
tp3962
a(g3
F0.2876712328767123
tp3963
a(g660
F0.2876712328767123
tp3964
a(g484
F0.2830188679245283
tp3965
a(g140
F0.27918781725888325
tp3966
a(g2
F0.2785714285714286
tp3967
a(g418
F0.2777777777777778
tp3968
a(g208
F0.2733812949640288
tp3969
a(g63
F0.2698412698412698
tp3970
a(g7
F0.26666666666666666
tp3971
a(g245
F0.265625
tp3972
a(g2198
F0.2631578947368421
tp3973
a(g1
F0.26229508196721313
tp3974
a(g134
F0.26153846153846155
tp3975
a(g186
F0.25862068965517243
tp3976
a(g335
F0.24
tp3977
a(g3823
F0.234375
tp3978
a(g1138
F0.23300970873786409
tp3979
a(g1083
F0.22727272727272727
tp3980
a(g1048
F0.22093023255813954
tp3981
a(g222
F0.21551724137931033
tp3982
a(g2928
F0.2152777777777778
tp3983
a(g129
F0.2077922077922078
tp3984
a(g383
F0.20652173913043478
tp3985
a(g1093
F0.2054794520547945
tp3986
a(S'inc:fever'
p3987
F0.20155038759689922
tp3988
a(g543
F0.2
tp3989
as(g543
g85
tp3990
(lp3991
(g88
F0.6216216216216216
tp3992
as(g126
g127
g128
tp3993
(lp3994
(g132
F0.42105263157894735
tp3995
a(g129
F0.3116883116883117
tp3996
a(g134
F0.26153846153846155
tp3997
as(g353
g113
tp3998
(lp3999
(g163
F0.8888888888888888
tp4000
a(g1719
F0.6956521739130435
tp4001
a(g166
F0.6551724137931034
tp4002
a(g1726
F0.5769230769230769
tp4003
a(g114
F0.56
tp4004
a(g180
F0.4482758620689655
tp4005
a(g112
F0.24
tp4006
a(g516
F0.22
tp4007
as(g9
g10
g286
tp4008
(lp4009
(g13
F0.41379310344827586
tp4010
a(g15
F0.35384615384615387
tp4011
as(g729
tp4012
(lp4013
(g730
F0.2805755395683453
tp4014
a(g733
F0.25925925925925924
tp4015
a(g735
F0.2328767123287671
tp4016
as(g168
g3
tp4017
(lp4018
(g7
F0.3
tp4019
a(g1
F0.2786885245901639
tp4020
as(g1724
tp4021
(lp4022
(g117
F0.2459016393442623
tp4023
a(g112
F0.22666666666666666
tp4024
as(g460
tp4025
(lp4026
(g1073
F0.265625
tp4027
a(g457
F0.21333333333333335
tp4028
a(S'exc:oxygen'
p4029
F0.2013888888888889
tp4030
as(g1985
tp4031
(lp4032
(g1982
F1.0
tp4033
as(g1
g7
g168
tp4034
(lp4035
(g3
F0.2328767123287671
tp4036
as(g1
g192
tp4037
(lp4038
(g7
F0.31666666666666665
tp4039
a(g3
F0.273972602739726
tp4040
as(g1
g44
g3
tp4041
(lp4042
(g7
F0.3
tp4043
as(g1
g39
g10
tp4044
(lp4045
(g7
F0.35
tp4046
a(g3
F0.2876712328767123
tp4047
as(g39
g168
g3
tp4048
(lp4049
(g7
F0.2833333333333333
tp4050
a(g1
F0.26229508196721313
tp4051
as(g2581
g1223
tp4052
(lp4053
(g1219
F0.5555555555555556
tp4054
a(S'exc:retinal diseases'
p4055
F0.2328767123287671
tp4056
as(g333
g1629
tp4057
(lp4058
(g2663
F0.21153846153846154
tp4059
as(g1567
tp4060
(lp4061
(g1564
F0.425
tp4062
as(g127
g129
tp4063
(lp4064
(g132
F0.42105263157894735
tp4065
a(g134
F0.26153846153846155
tp4066
as(g226
g10
g24
tp4067
(lp4068
(g451
F0.38571428571428573
tp4069
a(g27
F0.27956989247311825
tp4070
a(g15
F0.23076923076923078
tp4071
a(g655
F0.22321428571428573
tp4072
as(g671
g301
g298
tp4073
(lp4074
(g675
F0.5666666666666667
tp4075
a(g677
F0.45714285714285713
tp4076
as(g37
g31
g32
tp4077
(lp4078
(g35
F0.2459016393442623
tp4079
as(g3405
g3401
tp4080
(lp4081
(g1657
F0.3673469387755102
tp4082
as(g2
g192
tp4083
(lp4084
(g7
F0.3333333333333333
tp4085
a(g1
F0.32786885245901637
tp4086
a(g39
F0.29411764705882354
tp4087
a(g3
F0.273972602739726
tp4088
as(g465
g980
tp4089
(lp4090
(g462
F0.4594594594594595
tp4091
a(g534
F0.3488372093023256
tp4092
a(g532
F0.32
tp4093
as(g1219
g2581
tp4094
(lp4095
(g1223
F0.4444444444444444
tp4096
a(g1220
F0.2465753424657534
tp4097
as(g1382
tp4098
(lp4099
(g1054
F0.7391304347826086
tp4100
a(g1647
F0.20930232558139536
tp4101
as(g1
g2
g39
g52
tp4102
(lp4103
(g7
F0.3333333333333333
tp4104
a(g3
F0.273972602739726
tp4105
as(g166
g114
tp4106
(lp4107
(g163
F1.0
tp4108
a(g214
F0.29310344827586204
tp4109
a(g117
F0.2786885245901639
tp4110
as(g1
g2
g39
g10
g3
tp4111
(lp4112
(g7
F0.35
tp4113
as(g465
g2351
tp4114
(lp4115
(g462
F0.5675675675675675
tp4116
a(g353
F0.3442622950819672
tp4117
a(g114
F0.34
tp4118
as(g7
g39
g367
tp4119
(lp4120
(g3
F0.2191780821917808
tp4121
as(g1
g256
g3
tp4122
(lp4123
(g7
F0.25
tp4124
as(g1
g226
tp4125
(lp4126
(g7
F0.3
tp4127
a(g3
F0.2602739726027397
tp4128
as(g39
g103
tp4129
(lp4130
(g7
F0.3
tp4131
a(g1
F0.29508196721311475
tp4132
a(g2
F0.25
tp4133
a(g3
F0.2465753424657534
tp4134
as(g126
g127
g132
tp4135
(lp4136
(g134
F0.23076923076923078
tp4137
a(g129
F0.2077922077922078
tp4138
as(g393
g226
g390
tp4139
(lp4140
(g388
F0.8333333333333334
tp4141
as(g126
g208
g10
tp4142
(lp4143
(g729
F0.3125
tp4144
a(g1102
F0.25925925925925924
tp4145
a(g276
F0.25396825396825395
tp4146
a(g212
F0.2465753424657534
tp4147
as(g428
g429
g432
tp4148
(lp4149
(g61
F0.5172413793103449
tp4150
as(g1726
tp4151
(lp4152
(g117
F0.29508196721311475
tp4153
as(g524
tp4154
(lp4155
(g2070
F0.5333333333333333
tp4156
as(g214
tp4157
(lp4158
(g166
F0.6551724137931034
tp4159
a(g1719
F0.6521739130434783
tp4160
a(g1722
F0.6296296296296297
tp4161
a(g353
F0.6229508196721312
tp4162
a(g1730
F0.5769230769230769
tp4163
a(g462
F0.5675675675675675
tp4164
a(g114
F0.54
tp4165
a(g516
F0.34
tp4166
a(g1966
F0.26666666666666666
tp4167
a(g173
F0.24468085106382978
tp4168
a(S'inc:arteries'
p4169
F0.20930232558139536
tp4170
as(g73
g172
tp4171
(lp4172
(g333
F0.26881720430107525
tp4173
a(g78
F0.25961538461538464
tp4174
a(g381
F0.23255813953488372
tp4175
as(g1
g2
g39
g4
tp4176
(lp4177
(g7
F0.25
tp4178
a(g3
F0.2054794520547945
tp4179
as(g3932
tp4180
(lp4181
(g3748
F0.8823529411764706
tp4182
as(g393
g390
tp4183
(lp4184
(g388
F1.0
tp4185
a(g389
F0.34
tp4186
as(g226
g1584
tp4187
(lp4188
(g482
F0.4
tp4189
as(g71
g9
g15
g10
tp4190
(lp4191
(g13
F0.25862068965517243
tp4192
as(g10
g13
g286
g407
tp4193
(lp4194
(g9
F0.2777777777777778
tp4195
as(g671
g677
g301
tp4196
(lp4197
(g298
F0.48484848484848486
tp4198
as(g2
g7
g39
g168
tp4199
(lp4200
(g1
F0.26229508196721313
tp4201
a(g3
F0.2328767123287671
tp4202
as(g10
g1104
tp4203
(lp4204
(g276
F0.6349206349206349
tp4205
a(g9
F0.2777777777777778
tp4206
a(g15
F0.26153846153846155
tp4207
a(g13
F0.25862068965517243
tp4208
a(g196
F0.22058823529411764
tp4209
a(g367
F0.2
tp4210
as(g101
g97
tp4211
(lp4212
(g98
F0.5
tp4213
as(g1
g7
g39
g103
tp4214
(lp4215
(g3
F0.2465753424657534
tp4216
as(g1490
tp4217
(lp4218
(g1487
F0.9523809523809523
tp4219
as(S'exc:heart failure'
p4220
tp4221
(lp4222
(g480
F0.5909090909090909
tp4223
a(g132
F0.42105263157894735
tp4224
a(g226
F0.42105263157894735
tp4225
a(g482
F0.34
tp4226
a(g1087
F0.3125
tp4227
a(g129
F0.3116883116883117
tp4228
a(g134
F0.3076923076923077
tp4229
a(g660
F0.2876712328767123
tp4230
a(g63
F0.2698412698412698
tp4231
a(g1093
F0.2602739726027397
tp4232
a(g451
F0.2571428571428571
tp4233
a(g1073
F0.25
tp4234
a(g212
F0.2465753424657534
tp4235
a(g276
F0.23809523809523808
tp4236
a(g1138
F0.23786407766990292
tp4237
a(g337
F0.21333333333333335
tp4238
a(g24
F0.21142857142857144
tp4239
a(g149
F0.20238095238095238
tp4240
as(g3746
tp4241
(lp4242
(g3748
F0.9411764705882353
tp4243
as(g10
tp4244
(lp4245
(g1598
F1.0
tp4246
a(S'exc:renal insufficiency'
p4247
F1.0
tp4248
a(g1595
F1.0
tp4249
a(g1339
F1.0
tp4250
a(g276
F1.0
tp4251
a(g451
F0.9714285714285714
tp4252
a(g1990
F0.967741935483871
tp4253
a(g1104
F0.8461538461538461
tp4254
a(g15
F0.8153846153846154
tp4255
a(g9
F0.7777777777777778
tp4256
a(g13
F0.7758620689655172
tp4257
a(g1093
F0.7534246575342466
tp4258
a(g2425
F0.75
tp4259
a(g2404
F0.7096774193548387
tp4260
a(g2591
F0.6923076923076923
tp4261
a(g3932
F0.6666666666666666
tp4262
a(g2182
F0.6666666666666666
tp4263
a(g24
F0.6571428571428571
tp4264
a(g27
F0.6559139784946236
tp4265
a(g629
F0.6444444444444445
tp4266
a(g1332
F0.6097560975609756
tp4267
a(g212
F0.6027397260273972
tp4268
a(g729
F0.5625
tp4269
a(S'exc:thrombocytopenia'
p4270
F0.5555555555555556
tp4271
a(g1219
F0.5555555555555556
tp4272
a(g2406
F0.5333333333333333
tp4273
a(g1350
F0.5121951219512195
tp4274
a(g31
F0.5
tp4275
a(g2401
F0.4864864864864865
tp4276
a(g505
F0.4791666666666667
tp4277
a(g136
F0.47619047619047616
tp4278
a(g484
F0.4716981132075472
tp4279
a(g1102
F0.4691358024691358
tp4280
a(g329
F0.4647887323943662
tp4281
a(g39
F0.4632352941176471
tp4282
a(g1760
F0.4523809523809524
tp4283
a(g2
F0.45
tp4284
a(g59
F0.4473684210526316
tp4285
a(g208
F0.4460431654676259
tp4286
a(g655
F0.4375
tp4287
a(g88
F0.43243243243243246
tp4288
a(g226
F0.424812030075188
tp4289
a(g660
F0.4246575342465753
tp4290
a(g7
F0.4166666666666667
tp4291
a(g46
F0.4090909090909091
tp4292
a(g1083
F0.4090909090909091
tp4293
a(g320
F0.4027777777777778
tp4294
a(g3
F0.3972602739726027
tp4295
a(g44
F0.3953488372093023
tp4296
a(g480
F0.38636363636363635
tp4297
a(g1057
F0.375
tp4298
a(g1342
F0.3728813559322034
tp4299
a(g543
F0.37
tp4300
a(g1
F0.36065573770491804
tp4301
a(g318
F0.3597122302158273
tp4302
a(g245
F0.359375
tp4303
a(g1354
F0.345679012345679
tp4304
a(g327
F0.34523809523809523
tp4305
a(g324
F0.3442622950819672
tp4306
a(g140
F0.3350253807106599
tp4307
a(g337
F0.3333333333333333
tp4308
a(g1073
F0.328125
tp4309
a(g129
F0.3246753246753247
tp4310
a(g114
F0.32
tp4311
a(g482
F0.32
tp4312
a(g540
F0.31666666666666665
tp4313
a(g316
F0.31343283582089554
tp4314
a(g3823
F0.3125
tp4315
a(g128
F0.3106796116504854
tp4316
a(g222
F0.3103448275862069
tp4317
a(g158
F0.30434782608695654
tp4318
a(g322
F0.30158730158730157
tp4319
a(g63
F0.30158730158730157
tp4320
a(g331
F0.3006134969325153
tp4321
a(g2198
F0.2982456140350877
tp4322
a(g638
F0.2900763358778626
tp4323
a(g536
F0.2894736842105263
tp4324
a(g3987
F0.2868217054263566
tp4325
a(g1048
F0.28488372093023256
tp4326
a(g1087
F0.28125
tp4327
a(g460
F0.27941176470588236
tp4328
a(S'inc:nasopharynx'
p4329
F0.27906976744186046
tp4330
a(g117
F0.2786885245901639
tp4331
a(g2928
F0.2777777777777778
tp4332
a(g134
F0.27692307692307694
tp4333
a(g180
F0.27586206896551724
tp4334
a(g383
F0.2717391304347826
tp4335
a(g2974
F0.26666666666666666
tp4336
a(g219
F0.25806451612903225
tp4337
a(g161
F0.25274725274725274
tp4338
a(g3405
F0.25
tp4339
a(g333
F0.24731182795698925
tp4340
a(g926
F0.245
tp4341
a(g335
F0.24
tp4342
a(g78
F0.23076923076923078
tp4343
a(g465
F0.23
tp4344
a(g113
F0.22705314009661837
tp4345
a(g936
F0.2268041237113402
tp4346
a(g929
F0.22413793103448276
tp4347
a(g418
F0.2222222222222222
tp4348
a(g2894
F0.22058823529411764
tp4349
a(g3855
F0.21465968586387435
tp4350
a(g2578
F0.21264367816091953
tp4351
a(g224
F0.2
tp4352
as(S'exc:diabetes mellitus'
p4353
tp4354
(lp4355
(g2727
F0.2727272727272727
tp4356
as(g1762
g429
tp4357
(lp4358
(g1765
F0.6153846153846154
tp4359
as(g208
g1285
tp4360
(lp4361
(g1102
F0.2345679012345679
tp4362
as(g1774
g1250
tp4363
(lp4364
(g1771
F0.5135135135135135
tp4365
as(g1
g2
g7
g4
tp4366
(lp4367
(g3
F0.2054794520547945
tp4368
as(g7
g39
g44
tp4369
(lp4370
(g1
F0.2786885245901639
tp4371
a(g3
F0.2465753424657534
tp4372
as(g3748
S'exc:renal dialysis'
p4373
tp4374
(lp4375
(g3746
F1.0
tp4376
as(g126
g10
g273
tp4377
(lp4378
(g276
F0.25396825396825395
tp4379
as(g35
g31
tp4380
(lp4381
(g37
F0.25
tp4382
a(g32
F0.2328767123287671
tp4383
a(g30
F0.2073170731707317
tp4384
as(g2
g7
g10
tp4385
(lp4386
(g1
F0.36065573770491804
tp4387
a(g3
F0.3287671232876712
tp4388
as(g1659
tp4389
(lp4390
(S'exc:blood product'
p4391
F0.40816326530612246
tp4392
a(g1654
F0.35
tp4393
as(g393
g389
tp4394
(lp4395
(g388
F0.7083333333333334
tp4396
a(g390
F0.265625
tp4397
as(g532
g172
tp4398
(lp4399
(g101
F0.2
tp4400
as(g15
g286
g407
tp4401
(lp4402
(g9
F0.2962962962962963
tp4403
a(g13
F0.27586206896551724
tp4404
as(g2087
g1722
tp4405
(lp4406
(g2084
F0.26229508196721313
tp4407
as(g2304
tp4408
(lp4409
(S'exc:contraceptive methods'
p4410
F0.25862068965517243
tp4411
as(g1
g2
g46
g3
tp4412
(lp4413
(g7
F0.26666666666666666
tp4414
as(g1
g39
g52
tp4415
(lp4416
(g7
F0.3333333333333333
tp4417
a(g3
F0.273972602739726
tp4418
as(g192
g3
tp4419
(lp4420
(g1
F0.32786885245901637
tp4421
a(g7
F0.31666666666666665
tp4422
as(g196
g30
g31
tp4423
(lp4424
(g35
F0.2459016393442623
tp4425
a(g32
F0.2054794520547945
tp4426
as(g10
g447
g448
tp4427
(lp4428
(g451
F0.42857142857142855
tp4429
a(g13
F0.29310344827586204
tp4430
a(g9
F0.2777777777777778
tp4431
a(g15
F0.23076923076923078
tp4432
as(g301
g298
tp4433
(lp4434
(g675
F0.6333333333333333
tp4435
a(g677
F0.4857142857142857
tp4436
a(g671
F0.21705426356589147
tp4437
as(g7
g39
g226
tp4438
(lp4439
(g1
F0.29508196721311475
tp4440
a(g3
F0.273972602739726
tp4441
as(g9
g226
tp4442
(lp4443
(g13
F0.3793103448275862
tp4444
a(g15
F0.3230769230769231
tp4445
as(g2
g44
g3
tp4446
(lp4447
(g7
F0.31666666666666665
tp4448
a(g1
F0.3114754098360656
tp4449
as(g9
g15
g10
g722
tp4450
(lp4451
(g13
F0.25862068965517243
tp4452
as(g383
tp4453
(lp4454
(g378
F0.366412213740458
tp4455
a(g381
F0.313953488372093
tp4456
a(g640
F0.27586206896551724
tp4457
a(g423
F0.27586206896551724
tp4458
a(S'inc:inspired fraction of oxygen'
p4459
F0.26436781609195403
tp4460
a(g324
F0.26229508196721313
tp4461
a(g333
F0.25806451612903225
tp4462
a(g172
F0.2028985507246377
tp4463
as(g113
g163
tp4464
(lp4465
(g166
F0.6206896551724138
tp4466
a(g114
F0.36
tp4467
a(g117
F0.26229508196721313
tp4468
as(g1
g48
tp4469
(lp4470
(g7
F0.36666666666666664
tp4471
a(g3
F0.3287671232876712
tp4472
a(g31
F0.30357142857142855
tp4473
as(S'exc:alanine transaminase'
p4474
g23
tp4475
(lp4476
(g1760
F0.38095238095238093
tp4477
a(g7
F0.3
tp4478
a(g1
F0.2786885245901639
tp4479
a(g3
F0.2465753424657534
tp4480
a(g39
F0.23529411764705882
tp4481
as(g3748
tp4482
(lp4483
(g3746
F1.0
tp4484
a(g3932
F0.5
tp4485
as(S'inc:lung'
p4486
tp4487
(lp4488
(g163
F1.0
tp4489
a(g166
F0.896551724137931
tp4490
a(g114
F0.84
tp4491
a(g1724
F0.8333333333333334
tp4492
a(g1719
F0.6956521739130435
tp4493
a(g1726
F0.6923076923076923
tp4494
a(g333
F0.6236559139784946
tp4495
a(g180
F0.6206896551724138
tp4496
a(g117
F0.6065573770491803
tp4497
a(g519
F0.6
tp4498
a(g462
F0.5945945945945946
tp4499
a(g554
F0.5769230769230769
tp4500
a(g98
F0.5666666666666667
tp4501
a(g381
F0.5348837209302325
tp4502
a(S'inc:immunosuppressive agents'
p4503
F0.5
tp4504
a(g112
F0.49333333333333335
tp4505
a(g532
F0.48
tp4506
a(g534
F0.46511627906976744
tp4507
a(g465
F0.46
tp4508
a(g383
F0.45652173913043476
tp4509
a(g178
F0.4482758620689655
tp4510
a(g18
F0.44680851063829785
tp4511
a(g638
F0.42748091603053434
tp4512
a(g2578
F0.39080459770114945
tp4513
a(g929
F0.3879310344827586
tp4514
a(g78
F0.3557692307692308
tp4515
a(g3855
F0.3403141361256545
tp4516
a(g186
F0.3275862068965517
tp4517
a(g640
F0.3103448275862069
tp4518
a(g149
F0.30952380952380953
tp4519
a(g536
F0.3026315789473684
tp4520
a(g418
F0.28888888888888886
tp4521
a(g926
F0.28
tp4522
a(g3987
F0.27906976744186046
tp4523
a(g2894
F0.27205882352941174
tp4524
a(g322
F0.2698412698412698
tp4525
a(g540
F0.26666666666666666
tp4526
a(g245
F0.265625
tp4527
a(g316
F0.2537313432835821
tp4528
a(g2974
F0.25
tp4529
a(g1693
F0.25
tp4530
a(g3823
F0.25
tp4531
a(g3405
F0.25
tp4532
a(g3
F0.2465753424657534
tp4533
a(g324
F0.2459016393442623
tp4534
a(g1104
F0.24175824175824176
tp4535
a(g320
F0.2361111111111111
tp4536
a(g1048
F0.23255813953488372
tp4537
a(g655
F0.23214285714285715
tp4538
a(g543
F0.23
tp4539
a(g140
F0.2233502538071066
tp4540
a(g331
F0.2147239263803681
tp4541
a(g222
F0.20689655172413793
tp4542
a(g327
F0.20238095238095238
tp4543
a(g3280
F0.2
tp4544
as(g226
g581
tp4545
(lp4546
(g655
F0.24107142857142858
tp4547
as(g39
g303
tp4548
(lp4549
(g7
F0.31666666666666665
tp4550
a(g2
F0.3
tp4551
a(g1
F0.29508196721311475
tp4552
a(g3
F0.2465753424657534
tp4553
as(g1765
tp4554
(lp4555
(g1762
F0.9090909090909091
tp4556
as(g9
g15
g13
tp4557
(lp4558
(g407
F0.20430107526881722
tp4559
as(g1
g39
g192
g3
tp4560
(lp4561
(g7
F0.31666666666666665
tp4562
as(g298
tp4563
(lp4564
(g301
F0.9705882352941176
tp4565
a(g675
F0.6333333333333333
tp4566
a(g677
F0.4857142857142857
tp4567
a(g671
F0.21705426356589147
tp4568
as(g127
g128
tp4569
(lp4570
(g132
F0.42105263157894735
tp4571
a(g129
F0.3116883116883117
tp4572
a(g134
F0.26153846153846155
tp4573
as(g9
g13
g1032
tp4574
(lp4575
(g15
F0.24615384615384617
tp4576
as(g2286
g1774
tp4577
(lp4578
(g1771
F0.4594594594594595
tp4579
as(S'exc:myasthenia gravis'
p4580
tp4581
(lp4582
(S'exc:myasthenias'
p4583
F0.8181818181818182
tp4584
as(g1
g39
g103
g3
tp4585
(lp4586
(g7
F0.3
tp4587
as(g1
g2
g103
tp4588
(lp4589
(g7
F0.3
tp4590
a(g3
F0.273972602739726
tp4591
as(g2
g39
g372
tp4592
(lp4593
(g3
F0.2054794520547945
tp4594
as(g117
g112
g113
tp4595
(lp4596
(g114
F0.32
tp4597
as(g367
g3
tp4598
(lp4599
(g7
F0.26666666666666666
tp4600
a(g1
F0.26229508196721313
tp4601
as(g10
g140
tp4602
(lp4603
(g276
F0.36507936507936506
tp4604
a(g451
F0.3142857142857143
tp4605
a(g13
F0.25862068965517243
tp4606
a(g1093
F0.2328767123287671
tp4607
a(g15
F0.23076923076923078
tp4608
a(g24
F0.21714285714285714
tp4609
a(g1104
F0.2087912087912088
tp4610
a(g27
F0.20430107526881722
tp4611
a(g318
F0.2014388489208633
tp4612
as(g1
g52
tp4613
(lp4614
(g7
F0.3333333333333333
tp4615
a(g3
F0.2876712328767123
tp4616
as(g7
g39
tp4617
(lp4618
(g1
F0.9016393442622951
tp4619
a(g3
F0.7945205479452054
tp4620
a(g44
F0.4418604651162791
tp4621
a(g2
F0.4142857142857143
tp4622
a(g46
F0.36363636363636365
tp4623
a(g48
F0.2682926829268293
tp4624
a(g50
F0.234375
tp4625
a(g52
F0.20618556701030927
tp4626
as(S'inc:marrow'
p4627
tp4628
(lp4629
(S'inc:skeletal bone'
p4630
F0.8421052631578947
tp4631
as(g1083
tp4632
(lp4633
(g4353
F0.9
tp4634
a(g90
F0.5
tp4635
a(g337
F0.38666666666666666
tp4636
a(g505
F0.3333333333333333
tp4637
as(g208
g212
tp4638
(lp4639
(g1219
F0.5
tp4640
a(g2401
F0.40540540540540543
tp4641
a(g2406
F0.37777777777777777
tp4642
a(g1102
F0.37037037037037035
tp4643
a(g729
F0.3333333333333333
tp4644
a(g660
F0.273972602739726
tp4645
as(g71
g9
tp4646
(lp4647
(g13
F0.3448275862068966
tp4648
a(g15
F0.27692307692307694
tp4649
as(g1
g7
g192
tp4650
(lp4651
(g3
F0.2602739726027397
tp4652
as(g1493
tp4653
(lp4654
(g1496
F0.5454545454545454
tp4655
a(g1492
F0.46153846153846156
tp4656
as(g1
g2
g10
tp4657
(lp4658
(g7
F0.36666666666666664
tp4659
a(g3
F0.3013698630136986
tp4660
as(g29
g30
g32
tp4661
(lp4662
(g1
F0.39344262295081966
tp4663
a(g7
F0.38333333333333336
tp4664
a(g31
F0.30357142857142855
tp4665
as(g35
g29
g30
g31
g32
tp4666
(lp4667
(g37
F0.25
tp4668
as(g2676
g2401
tp4669
(lp4670
(g1220
F0.2054794520547945
tp4671
as(g29
g196
g31
g32
tp4672
(lp4673
(g35
F0.2459016393442623
tp4674
as(g114
tp4675
(lp4676
(g163
F1.0
tp4677
a(g166
F0.7586206896551724
tp4678
a(g117
F0.47540983606557374
tp4679
a(g214
F0.46551724137931033
tp4680
a(g112
F0.24
tp4681
a(g465
F0.23
tp4682
a(g113
F0.2028985507246377
tp4683
as(g1
g39
g256
tp4684
(lp4685
(g7
F0.25
tp4686
a(g3
F0.2054794520547945
tp4687
as(g2578
tp4688
(lp4689
(g2339
F0.9
tp4690
a(S'inc:mercury'
p4691
F0.8421052631578947
tp4692
a(g381
F0.627906976744186
tp4693
a(S'inc:respiratory distress'
p4694
F0.59375
tp4695
a(g144
F0.5555555555555556
tp4696
a(g147
F0.5333333333333333
tp4697
a(g383
F0.5
tp4698
a(g640
F0.4942528735632184
tp4699
a(g333
F0.45161290322580644
tp4700
a(g638
F0.4351145038167939
tp4701
a(g2341
F0.42857142857142855
tp4702
a(g2894
F0.41911764705882354
tp4703
a(g149
F0.4166666666666667
tp4704
a(g324
F0.4098360655737705
tp4705
a(g78
F0.34615384615384615
tp4706
a(g3804
F0.3404255319148936
tp4707
a(g113
F0.3285024154589372
tp4708
a(g316
F0.3283582089552239
tp4709
a(g245
F0.3125
tp4710
a(g73
F0.3036649214659686
tp4711
a(g460
F0.29411764705882354
tp4712
a(g335
F0.28
tp4713
a(g1693
F0.2719298245614035
tp4714
a(g936
F0.26804123711340205
tp4715
a(g222
F0.2672413793103448
tp4716
a(g1087
F0.25
tp4717
a(g320
F0.25
tp4718
a(g929
F0.2413793103448276
tp4719
a(g655
F0.24107142857142858
tp4720
a(g329
F0.23943661971830985
tp4721
a(g418
F0.23333333333333334
tp4722
a(g224
F0.225
tp4723
a(g3
F0.2191780821917808
tp4724
a(g1138
F0.21844660194174756
tp4725
a(g331
F0.2147239263803681
tp4726
as(g226
g482
tp4727
(lp4728
(g1584
F0.625
tp4729
a(g393
F0.5
tp4730
a(g480
F0.3409090909090909
tp4731
as(g35
g196
g30
g32
tp4732
(lp4733
(g7
F0.35
tp4734
a(g31
F0.26785714285714285
tp4735
as(g72
g9
g13
tp4736
(lp4737
(g15
F0.27692307692307694
tp4738
as(g1762
tp4739
(lp4740
(g1765
F0.7692307692307693
tp4741
as(g1
g2
g46
tp4742
(lp4743
(g7
F0.26666666666666666
tp4744
a(g3
F0.2191780821917808
tp4745
as(S'exc:alanine transaminase'
p4746
tp4747
(lp4748
(g1
F1.0
tp4749
a(g7
F0.9833333333333333
tp4750
a(g3
F0.8904109589041096
tp4751
a(g39
F0.8897058823529411
tp4752
a(g44
F0.7441860465116279
tp4753
a(g1133
F0.7142857142857143
tp4754
a(g136
F0.6190476190476191
tp4755
a(g46
F0.5681818181818182
tp4756
a(g1350
F0.47560975609756095
tp4757
a(g31
F0.44642857142857145
tp4758
a(g1057
F0.3958333333333333
tp4759
a(g1760
F0.38095238095238093
tp4760
a(g13
F0.3793103448275862
tp4761
a(g316
F0.373134328358209
tp4762
a(g9
F0.37037037037037035
tp4763
a(g15
F0.35384615384615387
tp4764
a(g245
F0.34375
tp4765
a(g276
F0.3333333333333333
tp4766
a(g78
F0.3076923076923077
tp4767
a(g482
F0.3
tp4768
a(g1104
F0.2967032967032967
tp4769
a(g543
F0.28
tp4770
a(g936
F0.27835051546391754
tp4771
a(g3272
F0.26993865030674846
tp4772
a(g63
F0.2698412698412698
tp4773
a(g186
F0.25862068965517243
tp4774
a(g418
F0.25555555555555554
tp4775
a(g320
F0.25
tp4776
a(g303
F0.24
tp4777
a(g322
F0.23809523809523808
tp4778
a(g224
F0.2375
tp4779
a(g318
F0.23741007194244604
tp4780
a(g1073
F0.234375
tp4781
a(g660
F0.2328767123287671
tp4782
a(g222
F0.23275862068965517
tp4783
a(g10
F0.2290909090909091
tp4784
a(g367
F0.22285714285714286
tp4785
a(g3280
F0.2222222222222222
tp4786
a(g103
F0.21511627906976744
tp4787
a(g333
F0.21505376344086022
tp4788
a(g638
F0.21374045801526717
tp4789
a(g1093
F0.2054794520547945
tp4790
a(g27
F0.20430107526881722
tp4791
a(g327
F0.20238095238095238
tp4792
as(g2
g7
g39
g10
tp4793
(lp4794
(g1
F0.3442622950819672
tp4795
a(g3
F0.3150684931506849
tp4796
as(g2
g7
g39
g103
g3
tp4797
(lp4798
(g1
F0.29508196721311475
tp4799
as(g675
g677
g301
tp4800
(lp4801
(g298
F0.45454545454545453
tp4802
as(g126
g129
tp4803
(lp4804
(g132
F0.5789473684210527
tp4805
a(g134
F0.35384615384615387
tp4806
a(g127
F0.21428571428571427
tp4807
as(g2
g226
tp4808
(lp4809
(g44
F0.37209302325581395
tp4810
a(g7
F0.31666666666666665
tp4811
a(g1
F0.3114754098360656
tp4812
a(g3
F0.3013698630136986
tp4813
a(g39
F0.27941176470588236
tp4814
a(g1350
F0.2073170731707317
tp4815
a(g660
F0.2054794520547945
tp4816
as(g1760
tp4817
(lp4818
(g23
F0.302158273381295
tp4819
as(g1
g2
g39
g46
g3
tp4820
(lp4821
(g7
F0.26666666666666666
tp4822
as(g72
g10
g13
tp4823
(lp4824
(g9
F0.2962962962962963
tp4825
a(g15
F0.23076923076923078
tp4826
as(S'exc:tributyrin'
p4827
tp4828
(lp4829
(S'exc:tuberculosis'
p4830
F0.22388059701492538
tp4831
as(g2
g7
g39
g50
tp4832
(lp4833
(g3
F0.2054794520547945
tp4834
as(g39
g50
g3
tp4835
(lp4836
(g7
F0.25
tp4837
as(g532
tp4838
(lp4839
(g98
F0.8333333333333334
tp4840
a(g101
F0.4
tp4841
a(g178
F0.29310344827586204
tp4842
a(g465
F0.22
tp4843
as(g30
g367
tp4844
(lp4845
(g31
F0.30357142857142855
tp4846
as(g1
g39
g168
g3
tp4847
(lp4848
(g7
F0.26666666666666666
tp4849
as(g2
g7
g39
g52
tp4850
(lp4851
(g1
F0.32786885245901637
tp4852
a(g3
F0.273972602739726
tp4853
as(g2
g39
g46
tp4854
(lp4855
(g7
F0.26666666666666666
tp4856
a(g1
F0.26229508196721313
tp4857
a(g3
F0.2191780821917808
tp4858
as(g203
g10
g273
tp4859
(lp4860
(g276
F0.2698412698412698
tp4861
as(g1102
g10
tp4862
(lp4863
(g212
F0.3150684931506849
tp4864
a(g208
F0.23741007194244604
tp4865
as(g640
tp4866
(lp4867
(g383
F0.2608695652173913
tp4868
a(g2894
F0.25735294117647056
tp4869
a(g2106
F0.2471264367816092
tp4870
a(g381
F0.23255813953488372
tp4871
as(g1
g168
tp4872
(lp4873
(g7
F0.2833333333333333
tp4874
a(g3
F0.2328767123287671
tp4875
as(g117
g112
tp4876
(lp4877
(g1724
F0.8333333333333334
tp4878
a(g114
F0.32
tp4879
as(g15
g10
tp4880
(lp4881
(g9
F0.7592592592592593
tp4882
a(g13
F0.7068965517241379
tp4883
a(g1339
F0.23076923076923078
tp4884
a(g448
F0.21505376344086022
tp4885
a(g1093
F0.2054794520547945
tp4886
as(g134
g127
g128
g129
tp4887
(lp4888
(g132
F0.39473684210526316
tp4889
as(g2
g10
g3
tp4890
(lp4891
(g7
F0.4
tp4892
a(g1
F0.36065573770491804
tp4893
as(g2
g7
g39
g192
tp4894
(lp4895
(g1
F0.3114754098360656
tp4896
a(g3
F0.2602739726027397
tp4897
as(g1628
g2663
tp4898
(lp4899
(g333
F0.22580645161290322
tp4900
as(g1993
tp4901
(lp4902
(g9
F0.9259259259259259
tp4903
a(g13
F0.8620689655172413
tp4904
a(g448
F0.24731182795698925
tp4905
a(g1093
F0.2328767123287671
tp4906
a(g1339
F0.23076923076923078
tp4907
as(g1
g46
tp4908
(lp4909
(g7
F0.26666666666666666
tp4910
a(g3
F0.2191780821917808
tp4911
as(g226
g1048
tp4912
(lp4913
(g1052
F0.36363636363636365
tp4914
a(g660
F0.273972602739726
tp4915
a(g655
F0.25
tp4916
as(g7
g39
g44
g3
tp4917
(lp4918
(g1
F0.2786885245901639
tp4919
as(g72
g15
tp4920
(lp4921
(g9
F0.3333333333333333
tp4922
a(g13
F0.3103448275862069
tp4923
as(g15
g119
g10
g13
tp4924
(lp4925
(g9
F0.2962962962962963
tp4926
as(g2
g39
g3
tp4927
(lp4928
(g7
F0.95
tp4929
a(g1
F0.9180327868852459
tp4930
a(g44
F0.4186046511627907
tp4931
a(g46
F0.36363636363636365
tp4932
a(g48
F0.2804878048780488
tp4933
a(g31
F0.26785714285714285
tp4934
a(g245
F0.234375
tp4935
a(g52
F0.20618556701030927
tp4936
as(g209
g1285
tp4937
(lp4938
(g2425
F0.8
tp4939
a(g451
F0.42857142857142855
tp4940
a(g2401
F0.40540540540540543
tp4941
a(g13
F0.3275862068965517
tp4942
a(g9
F0.3148148148148148
tp4943
a(g320
F0.2777777777777778
tp4944
a(g15
F0.26153846153846155
tp4945
a(g329
F0.22535211267605634
tp4946
a(g1102
F0.2222222222222222
tp4947
a(g212
F0.2191780821917808
tp4948
as(g15
g226
g10
tp4949
(lp4950
(g9
F0.37037037037037035
tp4951
a(g13
F0.3448275862068966
tp4952
as(g126
g492
tp4953
(lp4954
(g660
F0.2054794520547945
tp4955
as(g203
g206
tp4956
(lp4957
(g202
F0.45454545454545453
tp4958
as(g134
g128
g132
g985
tp4959
(lp4960
(g129
F0.22077922077922077
tp4961
as(g10
g3
tp4962
(lp4963
(g7
F0.4166666666666667
tp4964
a(g1
F0.36065573770491804
tp4965
as(g7
g46
tp4966
(lp4967
(g1
F0.26229508196721313
tp4968
a(g3
F0.2191780821917808
tp4969
as(g147
g144
tp4970
(lp4971
(g149
F0.32142857142857145
tp4972
as(g2
g7
g39
g46
tp4973
(lp4974
(g1
F0.26229508196721313
tp4975
a(g3
F0.2191780821917808
tp4976
as(g7
g39
g168
tp4977
(lp4978
(g1
F0.26229508196721313
tp4979
a(g3
F0.2328767123287671
tp4980
as(g2
g7
tp4981
(lp4982
(g1
F0.9180327868852459
tp4983
a(g3
F0.7945205479452054
tp4984
a(g44
F0.46511627906976744
tp4985
a(g39
F0.4264705882352941
tp4986
a(g46
F0.36363636363636365
tp4987
a(g48
F0.2804878048780488
tp4988
a(g31
F0.26785714285714285
tp4989
a(g50
F0.234375
tp4990
a(g52
F0.20618556701030927
tp4991
as(g126
g486
tp4992
(lp4993
(g660
F0.2054794520547945
tp4994
as(g9
g13
g407
tp4995
(lp4996
(g15
F0.2923076923076923
tp4997
as(g9
g15
g286
tp4998
(lp4999
(g13
F0.4482758620689655
tp5000
as(g451
tp5001
(lp5002
(g448
F0.3763440860215054
tp5003
a(g629
F0.35555555555555557
tp5004
a(g276
F0.30158730158730157
tp5005
a(g447
F0.2571428571428571
tp5006
a(g10
F0.24727272727272728
tp5007
a(g486
F0.2191780821917808
tp5008
a(g1093
F0.2054794520547945
tp5009
as(g393
g389
g390
tp5010
(lp5011
(g388
F0.7083333333333334
tp5012
as(g134
g126
g128
tp5013
(lp5014
(g132
F0.5526315789473685
tp5015
a(g129
F0.2987012987012987
tp5016
as(g7
g10
g3
tp5017
(lp5018
(g1
F0.36065573770491804
tp5019
as(g166
g117
g113
g114
tp5020
(lp5021
(g163
F0.8888888888888888
tp5022
as(g1
g7
g3
tp5023
(lp5024
(g44
F0.4186046511627907
tp5025
a(g39
F0.40441176470588236
tp5026
a(g2
F0.4
tp5027
a(g46
F0.36363636363636365
tp5028
a(g48
F0.2682926829268293
tp5029
a(g31
F0.26785714285714285
tp5030
a(g52
F0.20618556701030927
tp5031
as(g1
g3
g52
tp5032
(lp5033
(g7
F0.3333333333333333
tp5034
as(g677
g301
g298
tp5035
(lp5036
(g675
F0.5
tp5037
as(g1
g39
g3
g4
tp5038
(lp5039
(g7
F0.25
tp5040
as(g161
g226
tp5041
(lp5042
(g158
F0.21739130434782608
tp5043
as(g254
g251
tp5044
(lp5045
(g101
F0.21333333333333335
tp5046
as(g465
g113
g114
tp5047
(lp5048
(g166
F0.5172413793103449
tp5049
a(g117
F0.29508196721311475
tp5050
a(g214
F0.29310344827586204
tp5051
as(g166
g117
g113
g163
tp5052
(lp5053
(g114
F0.32
tp5054
as(g7
g39
g303
tp5055
(lp5056
(g1
F0.29508196721311475
tp5057
a(g3
F0.2465753424657534
tp5058
as(g72
g9
g15
g10
tp5059
(lp5060
(g13
F0.25862068965517243
tp5061
as(g98
tp5062
(lp5063
(g97
F0.5
tp5064
a(g101
F0.22666666666666666
tp5065
as(g15
g722
tp5066
(lp5067
(g9
F0.2777777777777778
tp5068
a(g13
F0.25862068965517243
tp5069
as(g511
g172
tp5070
(lp5071
(g322
F0.23809523809523808
tp5072
as(g780
tp5073
(lp5074
(g399
F0.75
tp5075
a(g398
F0.6956521739130435
tp5076
as(g128
g129
g132
tp5077
(lp5078
(g134
F0.5692307692307692
tp5079
as(g2089
tp5080
(lp5081
(S'inc:body mass'
p5082
F1.0
tp5083
a(g1722
F0.6666666666666666
tp5084
a(g2084
F0.3442622950819672
tp5085
a(g178
F0.29310344827586204
tp5086
as(g103
g3
tp5087
(lp5088
(g1
F0.32786885245901637
tp5089
a(g7
F0.3
tp5090
as(g2425
tp5091
(lp5092
(g448
F0.20430107526881722
tp5093
as(g2
g7
g226
g3
tp5094
(lp5095
(g1
F0.29508196721311475
tp5096
as(g4630
tp5097
(lp5098
(g4627
F0.8888888888888888
tp5099
as(g166
g113
g114
g163
tp5100
(lp5101
(g117
F0.26229508196721313
tp5102
as(g10
g1990
tp5103
(lp5104
(g1339
F0.26153846153846155
tp5105
as(g2
g39
g44
g3
tp5106
(lp5107
(g7
F0.3
tp5108
a(g1
F0.2786885245901639
tp5109
as(g1102
g126
tp5110
(lp5111
(g212
F0.2191780821917808
tp5112
a(g660
F0.2191780821917808
tp5113
as(g15
g119
tp5114
(lp5115
(g9
F0.3148148148148148
tp5116
a(g13
F0.29310344827586204
tp5117
as(g1
g2
g303
tp5118
(lp5119
(g7
F0.31666666666666665
tp5120
a(g3
F0.273972602739726
tp5121
as(g832
g477
tp5122
(lp5123
(g713
F0.2054794520547945
tp5124
as(g2
g39
g3
g303
tp5125
(lp5126
(g7
F0.3
tp5127
a(g1
F0.29508196721311475
tp5128
as(g1226
g1490
tp5129
(lp5130
(g1487
F0.8571428571428571
tp5131
as(g1
g2
g39
g226
g3
tp5132
(lp5133
(g7
F0.3
tp5134
as(g2
g7
g168
tp5135
(lp5136
(g1
F0.2786885245901639
tp5137
a(g3
F0.2465753424657534
tp5138
as(g30
g31
tp5139
(lp5140
(g35
F0.2786885245901639
tp5141
a(g37
F0.25
tp5142
a(g32
F0.2328767123287671
tp5143
as(g2
g39
g44
tp5144
(lp5145
(g7
F0.31666666666666665
tp5146
a(g1
F0.2786885245901639
tp5147
a(g3
F0.2465753424657534
tp5148
as(g126
g10
g448
tp5149
(lp5150
(g451
F0.24285714285714285
tp5151
as(g35
g29
g31
tp5152
(lp5153
(g37
F0.25
tp5154
a(g32
F0.2328767123287671
tp5155
a(g30
F0.2073170731707317
tp5156
as(g1
g2
g7
g39
g48
tp5157
(lp5158
(g3
F0.2876712328767123
tp5159
as(g9
g10
g13
g722
tp5160
(lp5161
(g15
F0.23076923076923078
tp5162
as(g1102
tp5163
(lp5164
(g2182
F0.5454545454545454
tp5165
a(g208
F0.5107913669064749
tp5166
a(g212
F0.4794520547945205
tp5167
a(g729
F0.4375
tp5168
a(g1057
F0.375
tp5169
a(g2406
F0.3333333333333333
tp5170
a(g660
F0.3013698630136986
tp5171
a(g15
F0.24615384615384617
tp5172
a(g1285
F0.22580645161290322
tp5173
as(S'exc:hemodynamic instability'
p5174
tp5175
(lp5176
(S'exc:hemodynamics'
p5177
F0.6785714285714286
tp5178
as(g134
g126
g128
g129
tp5179
(lp5180
(g132
F0.5526315789473685
tp5181
as(g1657
g3401
tp5182
(lp5183
(g3405
F0.3
tp5184
as(g1856
tp5185
(lp5186
(g1672
F0.38461538461538464
tp5187
as(g4391
tp5188
(lp5189
(g3405
F0.4666666666666667
tp5190
a(g1659
F0.45454545454545453
tp5191
as(g134
g126
g132
tp5192
(lp5193
(g129
F0.2727272727272727
tp5194
as(g2089
g2084
tp5195
(lp5196
(g1722
F0.5555555555555556
tp5197
as(g7
g44
g3
tp5198
(lp5199
(g1
F0.29508196721311475
tp5200
as(g899
g314
tp5201
(lp5202
(g3285
F0.2698412698412698
tp5203
as(g71
g72
g15
tp5204
(lp5205
(g9
F0.2777777777777778
tp5206
a(g13
F0.25862068965517243
tp5207
as(g2
g7
g256
g3
tp5208
(lp5209
(g1
F0.2459016393442623
tp5210
as(g1
g7
g303
tp5211
(lp5212
(g3
F0.2602739726027397
tp5213
as(g1722
tp5214
(lp5215
(g2084
F0.3770491803278688
tp5216
a(g2089
F0.3
tp5217
a(g2087
F0.29310344827586204
tp5218
as(g2
g50
g3
tp5219
(lp5220
(g7
F0.25
tp5221
as(g331
tp5222
(lp5223
(g460
F0.4264705882352941
tp5224
a(g3791
F0.39473684210526316
tp5225
a(g31
F0.3392857142857143
tp5226
a(g2928
F0.3333333333333333
tp5227
a(g7
F0.3333333333333333
tp5228
a(g1057
F0.3333333333333333
tp5229
a(g39
F0.33088235294117646
tp5230
a(g1
F0.32786885245901637
tp5231
a(g322
F0.31746031746031744
tp5232
a(g2
F0.3142857142857143
tp5233
a(g324
F0.3114754098360656
tp5234
a(g418
F0.3111111111111111
tp5235
a(g222
F0.3103448275862069
tp5236
a(g1350
F0.3048780487804878
tp5237
a(g3
F0.3013698630136986
tp5238
a(g316
F0.29850746268656714
tp5239
a(g245
F0.296875
tp5240
a(g333
F0.27956989247311825
tp5241
a(g638
F0.2748091603053435
tp5242
a(S'inc:oxygen'
p5243
F0.27
tp5244
a(g335
F0.26666666666666666
tp5245
a(g1073
F0.25
tp5246
a(g219
F0.24193548387096775
tp5247
a(g224
F0.2375
tp5248
a(g536
F0.23684210526315788
tp5249
a(g1048
F0.23255813953488372
tp5250
a(g3987
F0.2248062015503876
tp5251
a(g1226
F0.22330097087378642
tp5252
a(g1104
F0.21978021978021978
tp5253
a(g73
F0.2094240837696335
tp5254
a(g2578
F0.20114942528735633
tp5255
a(g543
F0.2
tp5256
as(g1223
tp5257
(lp5258
(g1219
F0.9722222222222222
tp5259
a(g4055
F0.2876712328767123
tp5260
as(g2
g871
tp5261
(lp5262
(g3
F0.2054794520547945
tp5263
as(g13
g722
tp5264
(lp5265
(g9
F0.2777777777777778
tp5266
a(g15
F0.23076923076923078
tp5267
as(g2
g39
g226
tp5268
(lp5269
(g44
F0.3488372093023256
tp5270
a(g7
F0.31666666666666665
tp5271
a(g1
F0.29508196721311475
tp5272
a(g3
F0.273972602739726
tp5273
as(g112
g114
tp5274
(lp5275
(g117
F0.26229508196721313
tp5276
as(S'exc:alanine transaminase'
p5277
g316
tp5278
(lp5279
(S'exc:transaminases'
p5280
F0.2054794520547945
tp5281
as(g462
g2351
tp5282
(lp5283
(g465
F0.21
tp5284
as(g59
g10
tp5285
(lp5286
(g428
F0.2361111111111111
tp5287
as(g10
S'inc:oxygen'
p5288
tp5289
(lp5290
(g1104
F0.2087912087912088
tp5291
as(g492
tp5292
(lp5293
(g1698
F1.0
tp5294
a(g1332
F0.36585365853658536
tp5295
a(g15
F0.26153846153846155
tp5296
a(g212
F0.2328767123287671
tp5297
a(g448
F0.22580645161290322
tp5298
a(g660
F0.2191780821917808
tp5299
a(g451
F0.21428571428571427
tp5300
a(g10
F0.2
tp5301
as(g1
g39
g226
tp5302
(lp5303
(g7
F0.3
tp5304
a(g3
F0.2465753424657534
tp5305
as(g59
tp5306
(lp5307
(g57
F0.7727272727272727
tp5308
a(g428
F0.5277777777777778
tp5309
as(g147
g149
tp5310
(lp5311
(g144
F1.0
tp5312
as(g2
g7
g303
tp5313
(lp5314
(g1
F0.3114754098360656
tp5315
a(g3
F0.2602739726027397
tp5316
as(g31
g32
tp5317
(lp5318
(g35
F0.2786885245901639
tp5319
a(g37
F0.25
tp5320
a(g30
F0.2073170731707317
tp5321
as(g2
g46
g3
tp5322
(lp5323
(g7
F0.26666666666666666
tp5324
a(g1
F0.26229508196721313
tp5325
as(g2
g39
g10
tp5326
(lp5327
(g7
F0.38333333333333336
tp5328
a(g1
F0.3442622950819672
tp5329
a(g3
F0.3287671232876712
tp5330
a(g276
F0.31746031746031744
tp5331
a(g1104
F0.27472527472527475
tp5332
a(g15
F0.23076923076923078
tp5333
as(g9
g15
g722
tp5334
(lp5335
(g13
F0.25862068965517243
tp5336
as(g1073
tp5337
(lp5338
(g3804
F0.3617021276595745
tp5339
a(g2505
F0.29411764705882354
tp5340
a(g245
F0.25
tp5341
a(S'exc:respiratory failure'
p5342
F0.25
tp5343
as(g2
g103
tp5344
(lp5345
(g1
F0.32786885245901637
tp5346
a(g7
F0.3
tp5347
a(g3
F0.273972602739726
tp5348
a(g39
F0.25735294117647056
tp5349
as(g35
g29
g37
g30
g31
tp5350
(lp5351
(g32
F0.2054794520547945
tp5352
as(g2
g39
g103
g3
tp5353
(lp5354
(g7
F0.3
tp5355
a(g1
F0.29508196721311475
tp5356
as(S'exc:fever'
p5357
tp5358
(lp5359
(g158
F0.4782608695652174
tp5360
a(g314
F0.4186046511627907
tp5361
a(g63
F0.25396825396825395
tp5362
as(g377
g704
tp5363
(lp5364
(g381
F0.20930232558139536
tp5365
as(g71
g15
g13
tp5366
(lp5367
(g9
F0.3333333333333333
tp5368
as(g71
g10
g13
tp5369
(lp5370
(g9
F0.2962962962962963
tp5371
a(g15
F0.23076923076923078
tp5372
as(g127
g128
g129
tp5373
(lp5374
(g132
F0.42105263157894735
tp5375
a(g134
F0.26153846153846155
tp5376
as(g30
g31
g32
tp5377
(lp5378
(g35
F0.2786885245901639
tp5379
a(g37
F0.25
tp5380
as(g2
g7
g4
tp5381
(lp5382
(g1
F0.2459016393442623
tp5383
a(g3
F0.2054794520547945
tp5384
as(g35
g196
g31
tp5385
(lp5386
(g32
F0.2054794520547945
tp5387
as(g1248
g1244
tp5388
(lp5389
(g1245
F0.5384615384615384
tp5390
as(g1
g39
g48
tp5391
(lp5392
(g7
F0.35
tp5393
a(g3
F0.3013698630136986
tp5394
a(g31
F0.26785714285714285
tp5395
as(g65
g954
tp5396
(lp5397
(g63
F0.2698412698412698
tp5398
a(g320
F0.2361111111111111
tp5399
a(g129
F0.2077922077922078
tp5400
as(g134
g128
g132
tp5401
(lp5402
(g129
F0.4805194805194805
tp5403
as(g322
tp5404
(lp5405
(g511
F0.3081395348837209
tp5406
a(S'exc:pregnancy tests'
p5407
F0.2
tp5408
as(g254
tp5409
(lp5410
(g251
F0.9411764705882353
tp5411
a(g101
F0.21333333333333335
tp5412
as(g117
g214
tp5413
(lp5414
(g1719
F0.6521739130434783
tp5415
a(g1722
F0.5925925925925926
tp5416
a(g166
F0.5517241379310345
tp5417
a(g114
F0.44
tp5418
a(g516
F0.21
tp5419
as(g10
g13
g286
tp5420
(lp5421
(g9
F0.4444444444444444
tp5422
a(g15
F0.35384615384615387
tp5423
as(g1476
g581
tp5424
(lp5425
(g381
F0.3023255813953488
tp5426
a(g78
F0.27884615384615385
tp5427
a(g316
F0.23880597014925373
tp5428
a(g333
F0.23655913978494625
tp5429
a(g149
F0.21428571428571427
tp5430
as(g1
g303
tp5431
(lp5432
(g7
F0.31666666666666665
tp5433
a(g3
F0.273972602739726
tp5434
as(g9
g15
g286
g407
tp5435
(lp5436
(g13
F0.27586206896551724
tp5437
as(g1724
g117
tp5438
(lp5439
(g112
F0.2
tp5440
as(g166
g117
g163
tp5441
(lp5442
(g114
F0.32
tp5443
as(g1
g2
g256
tp5444
(lp5445
(g7
F0.25
tp5446
a(g3
F0.2328767123287671
tp5447
as(g1
g2
g39
g303
tp5448
(lp5449
(g7
F0.3
tp5450
a(g3
F0.2465753424657534
tp5451
as(g29
g196
g30
tp5452
(lp5453
(g31
F0.39285714285714285
tp5454
a(g44
F0.37209302325581395
tp5455
a(g7
F0.36666666666666664
tp5456
a(g1
F0.36065573770491804
tp5457
a(g3
F0.3150684931506849
tp5458
as(g1
g2
g7
g48
tp5459
(lp5460
(g3
F0.3013698630136986
tp5461
a(g31
F0.26785714285714285
tp5462
as(g2
g7
g39
g3
g4
tp5463
(lp5464
(g1
F0.2459016393442623
tp5465
as(g166
g214
g113
tp5466
(lp5467
(g114
F0.34
tp5468
a(g117
F0.2459016393442623
tp5469
as(g7
g39
g168
g3
tp5470
(lp5471
(g1
F0.26229508196721313
tp5472
as(g52
tp5473
(lp5474
(g1
F0.3442622950819672
tp5475
a(g7
F0.3333333333333333
tp5476
a(S'inc:severe acute respiratory syndrome'
p5477
F0.30357142857142855
tp5478
a(g3
F0.3013698630136986
tp5479
a(g324
F0.2786885245901639
tp5480
as(g1
g2
g39
g48
tp5481
(lp5482
(g7
F0.35
tp5483
a(g3
F0.3013698630136986
tp5484
a(g31
F0.26785714285714285
tp5485
as(g929
tp5486
(lp5487
(g298
F0.696969696969697
tp5488
a(g301
F0.6764705882352942
tp5489
a(S'inc:cough with fever'
p5490
F0.6521739130434783
tp5491
a(g677
F0.5428571428571428
tp5492
a(g675
F0.5333333333333333
tp5493
a(g671
F0.4496124031007752
tp5494
a(S'inc:signs and symptoms respiratory'
p5495
F0.391304347826087
tp5496
a(g383
F0.34782608695652173
tp5497
a(g381
F0.3023255813953488
tp5498
a(g378
F0.29770992366412213
tp5499
a(g333
F0.25806451612903225
tp5500
a(g934
F0.21739130434782608
tp5501
as(g1219
g10
tp5502
(lp5503
(g1223
F0.4222222222222222
tp5504
as(g1
g2
g39
g44
tp5505
(lp5506
(g7
F0.2833333333333333
tp5507
a(g3
F0.2328767123287671
tp5508
as(g318
g222
tp5509
(lp5510
(g219
F0.2903225806451613
tp5511
a(g63
F0.2857142857142857
tp5512
a(g224
F0.2125
tp5513
a(g320
F0.20833333333333334
tp5514
as(g1
g2
g7
g39
g10
tp5515
(lp5516
(g3
F0.2876712328767123
tp5517
as(g5082
tp5518
(lp5519
(g540
F0.48333333333333334
tp5520
as(g1
g226
g3
tp5521
(lp5522
(g7
F0.3
tp5523
as(g381
g378
tp5524
(lp5525
(g698
F0.25
tp5526
as(g39
g46
g3
tp5527
(lp5528
(g7
F0.26666666666666666
tp5529
a(g1
F0.26229508196721313
tp5530
as(g35
g29
g196
g30
g32
tp5531
(lp5532
(g7
F0.35
tp5533
a(g31
F0.26785714285714285
tp5534
as(g7
g39
g46
tp5535
(lp5536
(g1
F0.26229508196721313
tp5537
a(g3
F0.2191780821917808
tp5538
as(g2
g7
g39
g3
g52
tp5539
(lp5540
(g1
F0.32786885245901637
tp5541
as(g15
g10
g407
tp5542
(lp5543
(g9
F0.2962962962962963
tp5544
a(g13
F0.27586206896551724
tp5545
as(g2
g7
g39
g226
g3
tp5546
(lp5547
(g1
F0.29508196721311475
tp5548
as(g1
g39
g226
g3
tp5549
(lp5550
(g7
F0.3
tp5551
as(g9
g10
g722
tp5552
(lp5553
(g13
F0.25862068965517243
tp5554
a(g15
F0.23076923076923078
tp5555
as(g208
g10
g212
tp5556
(lp5557
(g1102
F0.2345679012345679
tp5558
as(g35
g29
g37
g31
tp5559
(lp5560
(g32
F0.2054794520547945
tp5561
as(g113
g114
g163
tp5562
(lp5563
(g166
F0.6206896551724138
tp5564
a(g117
F0.26229508196721313
tp5565
as(g1
g7
g39
g226
tp5566
(lp5567
(g3
F0.2465753424657534
tp5568
as(g5288
tp5569
(lp5570
(g638
F0.5572519083969466
tp5571
a(g3280
F0.4222222222222222
tp5572
a(g333
F0.41935483870967744
tp5573
a(g5495
F0.41304347826086957
tp5574
a(S'exc:intubation'
p5575
F0.3617021276595745
tp5576
a(g640
F0.3448275862068966
tp5577
a(g2
F0.34285714285714286
tp5578
a(g114
F0.34
tp5579
a(g39
F0.3382352941176471
tp5580
a(g78
F0.33653846153846156
tp5581
a(g7
F0.3333333333333333
tp5582
a(g331
F0.3312883435582822
tp5583
a(g1
F0.32786885245901637
tp5584
a(g186
F0.3275862068965517
tp5585
a(g2894
F0.3235294117647059
tp5586
a(g383
F0.30434782608695654
tp5587
a(g3
F0.3013698630136986
tp5588
a(g2928
F0.2986111111111111
tp5589
a(g324
F0.29508196721311475
tp5590
a(g180
F0.29310344827586204
tp5591
a(g929
F0.29310344827586204
tp5592
a(g543
F0.29
tp5593
a(g536
F0.2894736842105263
tp5594
a(g172
F0.27053140096618356
tp5595
a(g3855
F0.2670157068062827
tp5596
a(g2974
F0.26666666666666666
tp5597
a(g15
F0.26153846153846155
tp5598
a(g465
F0.26
tp5599
a(g936
F0.25773195876288657
tp5600
a(g381
F0.2441860465116279
tp5601
a(g1104
F0.24175824175824176
tp5602
a(g940
F0.2412280701754386
tp5603
a(g3987
F0.24031007751937986
tp5604
a(g316
F0.23880597014925373
tp5605
a(g149
F0.23809523809523808
tp5606
a(g418
F0.23333333333333334
tp5607
a(g134
F0.23076923076923078
tp5608
a(g327
F0.21428571428571427
tp5609
a(g1354
F0.20987654320987653
tp5610
a(g655
F0.20535714285714285
tp5611
a(g112
F0.2
tp5612
as(g675
g298
tp5613
(lp5614
(g301
F0.5588235294117647
tp5615
a(g677
F0.42857142857142855
tp5616
as(g10
g511
tp5617
(lp5618
(g322
F0.25396825396825395
tp5619
as(g2
g7
g192
tp5620
(lp5621
(g1
F0.3114754098360656
tp5622
a(g3
F0.2602739726027397
tp5623
as(g2
g52
tp5624
(lp5625
(g1
F0.3442622950819672
tp5626
a(g7
F0.3333333333333333
tp5627
a(g3
F0.3013698630136986
tp5628
as(g377
g698
tp5629
(lp5630
(g381
F0.2558139534883721
tp5631
a(g378
F0.24427480916030533
tp5632
a(g640
F0.20689655172413793
tp5633
as(g39
g256
g3
tp5634
(lp5635
(g7
F0.25
tp5636
a(g1
F0.2459016393442623
tp5637
as(S'exc:hiv'
p5638
g314
tp5639
(lp5640
(g3285
F0.25396825396825395
tp5641
as(g1
g2
g7
g103
tp5642
(lp5643
(g3
F0.2465753424657534
tp5644
as(g671
tp5645
(lp5646
(g298
F0.8484848484848485
tp5647
a(g301
F0.8235294117647058
tp5648
a(S'inc:axilla'
p5649
F0.7894736842105263
tp5650
a(g675
F0.7
tp5651
a(g677
F0.6857142857142857
tp5652
a(g1523
F0.6176470588235294
tp5653
a(g5495
F0.5434782608695652
tp5654
a(g929
F0.5
tp5655
a(g3823
F0.3125
tp5656
a(g178
F0.27586206896551724
tp5657
a(g186
F0.27586206896551724
tp5658
a(g3280
F0.25555555555555554
tp5659
a(g383
F0.2391304347826087
tp5660
a(g129
F0.22077922077922077
tp5661
a(g3
F0.2191780821917808
tp5662
a(g512
F0.20418848167539266
tp5663
a(g418
F0.2
tp5664
as(g71
g13
tp5665
(lp5666
(g9
F0.37037037037037035
tp5667
a(g15
F0.27692307692307694
tp5668
as(g1584
tp5669
(lp5670
(g482
F0.56
tp5671
as(g134
g126
g127
g128
g129
tp5672
(lp5673
(g132
F0.39473684210526316
tp5674
as(g2
g39
g256
g3
tp5675
(lp5676
(g7
F0.25
tp5677
a(g1
F0.2459016393442623
tp5678
as(g256
tp5679
(lp5680
(S'exc:home oxygen'
p5681
F0.9411764705882353
tp5682
a(g2505
F0.8823529411764706
tp5683
a(S'exc:respiratory rate'
p5684
F0.6
tp5685
a(g132
F0.47368421052631576
tp5686
a(S'exc:respiratory distress'
p5687
F0.42857142857142855
tp5688
a(g460
F0.4264705882352941
tp5689
a(g1073
F0.40625
tp5690
a(S'exc:nose'
p5691
F0.375
tp5692
a(g134
F0.36923076923076925
tp5693
a(g129
F0.36363636363636365
tp5694
a(g1138
F0.30097087378640774
tp5695
a(g331
F0.294478527607362
tp5696
a(g324
F0.2786885245901639
tp5697
a(g1
F0.2786885245901639
tp5698
a(g158
F0.2753623188405797
tp5699
a(g7
F0.26666666666666666
tp5700
a(g3
F0.2465753424657534
tp5701
a(g655
F0.24107142857142858
tp5702
a(g335
F0.24
tp5703
a(g245
F0.234375
tp5704
a(g936
F0.2268041237113402
tp5705
a(g1350
F0.21951219512195122
tp5706
a(g5243
F0.215
tp5707
a(g451
F0.21428571428571427
tp5708
a(g329
F0.2112676056338028
tp5709
a(g1104
F0.2087912087912088
tp5710
a(g224
F0.2
tp5711
as(g1
g3
g4
tp5712
(lp5713
(g7
F0.25
tp5714
as(g1
g7
g39
tp5715
(lp5716
(g3
F0.7534246575342466
tp5717
a(g44
F0.3953488372093023
tp5718
a(g2
F0.39285714285714285
tp5719
a(g46
F0.36363636363636365
tp5720
a(g48
F0.25609756097560976
tp5721
a(g52
F0.20618556701030927
tp5722
as(g166
g113
g114
tp5723
(lp5724
(g163
F1.0
tp5725
a(g214
F0.29310344827586204
tp5726
a(g117
F0.2786885245901639
tp5727
as(g224
g222
tp5728
(lp5729
(g219
F0.3225806451612903
tp5730
as(g2
g3
g52
tp5731
(lp5732
(g1
F0.3442622950819672
tp5733
a(g7
F0.3333333333333333
tp5734
as(g134
g128
tp5735
(lp5736
(g132
F0.9736842105263158
tp5737
a(g129
F0.5194805194805194
tp5738
a(g505
F0.3333333333333333
tp5739
as(g1
g367
tp5740
(lp5741
(g3
F0.2191780821917808
tp5742
as(g3015
tp5743
(lp5744
(S'inc:kidney'
p5745
F0.2
tp5746
as(g39
g3
g52
tp5747
(lp5748
(g7
F0.3333333333333333
tp5749
a(g1
F0.32786885245901637
tp5750
as(g5177
tp5751
(lp5752
(g5174
F1.0
tp5753
as(g871
tp5754
(lp5755
(g88
F0.6216216216216216
tp5756
a(g327
F0.5
tp5757
a(g44
F0.4186046511627907
tp5758
a(g536
F0.3684210526315789
tp5759
a(g63
F0.3333333333333333
tp5760
a(g178
F0.3103448275862069
tp5761
a(g112
F0.26666666666666666
tp5762
a(g186
F0.25862068965517243
tp5763
a(g322
F0.25396825396825395
tp5764
a(g465
F0.25
tp5765
a(g245
F0.25
tp5766
a(g3
F0.2465753424657534
tp5767
a(g320
F0.2361111111111111
tp5768
a(g1350
F0.2073170731707317
tp5769
a(g1093
F0.2054794520547945
tp5770
a(g103
F0.20348837209302326
tp5771
a(g418
F0.2
tp5772
a(g2
F0.2
tp5773
as(g1
g39
g3
g52
tp5774
(lp5775
(g7
F0.3333333333333333
tp5776
as(g46
tp5777
(lp5778
(g7
F0.26666666666666666
tp5779
a(g1
F0.26229508196721313
tp5780
a(g3
F0.2191780821917808
tp5781
a(g48
F0.2073170731707317
tp5782
as(g39
g44
g3
tp5783
(lp5784
(g7
F0.3
tp5785
a(g1
F0.2786885245901639
tp5786
as(g39
g46
tp5787
(lp5788
(g7
F0.26666666666666666
tp5789
a(g1
F0.26229508196721313
tp5790
a(g3
F0.2191780821917808
tp5791
as(g203
tp5792
(lp5793
(g477
F0.8823529411764706
tp5794
a(g1102
F0.8765432098765432
tp5795
a(g206
F0.8333333333333334
tp5796
a(g729
F0.8125
tp5797
a(g212
F0.7945205479452054
tp5798
a(g2182
F0.7575757575757576
tp5799
a(S'exc:myasthenias'
p5800
F0.7272727272727273
tp5801
a(g2398
F0.7083333333333334
tp5802
a(g2401
F0.7027027027027027
tp5803
a(S'exc:qtc interval'
p5804
F0.6956521739130435
tp5805
a(g3935
F0.5862068965517241
tp5806
a(g1219
F0.5833333333333334
tp5807
a(g2404
F0.5806451612903226
tp5808
a(g2406
F0.5777777777777777
tp5809
a(g660
F0.5205479452054794
tp5810
a(S'exc:electrocardiogram'
p5811
F0.5
tp5812
a(S'exc:epilepsy'
p5813
F0.4838709677419355
tp5814
a(g276
F0.38095238095238093
tp5815
a(g1057
F0.3541666666666667
tp5816
a(g15
F0.3384615384615385
tp5817
a(g27
F0.3118279569892473
tp5818
a(g1093
F0.273972602739726
tp5819
a(g1104
F0.26373626373626374
tp5820
a(g13
F0.25862068965517243
tp5821
a(g158
F0.2318840579710145
tp5822
a(g1350
F0.23170731707317074
tp5823
a(g451
F0.22857142857142856
tp5824
a(g10
F0.22545454545454546
tp5825
a(g161
F0.21978021978021978
tp5826
a(g209
F0.21714285714285714
tp5827
a(g126
F0.20676691729323307
tp5828
a(S'exc:medical contraindication'
p5829
F0.20161290322580644
tp5830
as(g15
g10
g286
tp5831
(lp5832
(g9
F0.42592592592592593
tp5833
a(g13
F0.39655172413793105
tp5834
as(g9
g15
g226
g10
tp5835
(lp5836
(g13
F0.3448275862068966
tp5837
as(g2089
g1722
tp5838
(lp5839
(g2084
F0.2459016393442623
tp5840
as(g675
g677
tp5841
(lp5842
(g298
F0.45454545454545453
tp5843
a(g301
F0.4411764705882353
tp5844
a(g1523
F0.4411764705882353
tp5845
as(g7
g256
g3
tp5846
(lp5847
(g1
F0.2459016393442623
tp5848
as(g7
g39
g48
g3
tp5849
(lp5850
(g1
F0.3442622950819672
tp5851
as(g1
g2
g7
g39
tp5852
(lp5853
(g3
F0.7534246575342466
tp5854
a(g44
F0.3953488372093023
tp5855
a(g46
F0.36363636363636365
tp5856
a(g48
F0.25609756097560976
tp5857
a(g52
F0.20618556701030927
tp5858
as(g320
g59
g65
tp5859
(lp5860
(g57
F0.6818181818181818
tp5861
as(g126
tp5862
(lp5863
(g655
F1.0
tp5864
a(g484
F0.9811320754716981
tp5865
a(g480
F0.9545454545454546
tp5866
a(g388
F0.8333333333333334
tp5867
a(g393
F0.8235294117647058
tp5868
a(g660
F0.821917808219178
tp5869
a(S'exc:body fluids'
p5870
F0.7272727272727273
tp5871
a(g482
F0.72
tp5872
a(g1584
F0.71875
tp5873
a(g2910
F0.6956521739130435
tp5874
a(S'exc:fluid overload'
p5875
F0.6818181818181818
tp5876
a(g2398
F0.6666666666666666
tp5877
a(g2591
F0.6538461538461539
tp5878
a(g2404
F0.6451612903225806
tp5879
a(g1087
F0.609375
tp5880
a(g2182
F0.6060606060606061
tp5881
a(g132
F0.5789473684210527
tp5882
a(g629
F0.5777777777777777
tp5883
a(g2401
F0.5675675675675675
tp5884
a(g451
F0.5571428571428572
tp5885
a(g3935
F0.5517241379310345
tp5886
a(g129
F0.5454545454545454
tp5887
a(g2304
F0.5428571428571428
tp5888
a(g5811
F0.5263157894736842
tp5889
a(g1093
F0.5205479452054794
tp5890
a(g212
F0.5068493150684932
tp5891
a(g134
F0.49230769230769234
tp5892
a(g2198
F0.49122807017543857
tp5893
a(g44
F0.4883720930232558
tp5894
a(S'exc:brain'
p5895
F0.4864864864864865
tp5896
a(g1073
F0.484375
tp5897
a(g128
F0.48058252427184467
tp5898
a(g1052
F0.4772727272727273
tp5899
a(g1339
F0.47692307692307695
tp5900
a(g3791
F0.47368421052631576
tp5901
a(g24
F0.4685714285714286
tp5902
a(g1332
F0.4634146341463415
tp5903
a(g276
F0.4603174603174603
tp5904
a(g729
F0.4583333333333333
tp5905
a(g2341
F0.4523809523809524
tp5906
a(g136
F0.4523809523809524
tp5907
a(g27
F0.45161290322580644
tp5908
a(g2406
F0.4444444444444444
tp5909
a(g1523
F0.4411764705882353
tp5910
a(g329
F0.4225352112676056
tp5911
a(g337
F0.41333333333333333
tp5912
a(g10
F0.4109090909090909
tp5913
a(g9
F0.4074074074074074
tp5914
a(g1104
F0.4065934065934066
tp5915
a(g158
F0.4057971014492754
tp5916
a(g63
F0.3968253968253968
tp5917
a(g13
F0.39655172413793105
tp5918
a(g208
F0.39568345323741005
tp5919
a(g1083
F0.3939393939393939
tp5920
a(g46
F0.38636363636363635
tp5921
a(g1102
F0.38271604938271603
tp5922
a(g320
F0.375
tp5923
a(g140
F0.36548223350253806
tp5924
a(g505
F0.3541666666666667
tp5925
a(g15
F0.35384615384615387
tp5926
a(g1350
F0.35365853658536583
tp5927
a(g460
F0.35294117647058826
tp5928
a(g2928
F0.3472222222222222
tp5929
a(g1354
F0.345679012345679
tp5930
a(g3
F0.3424657534246575
tp5931
a(g7
F0.3333333333333333
tp5932
a(g2
F0.3142857142857143
tp5933
a(g245
F0.3125
tp5934
a(g224
F0.3125
tp5935
a(g1
F0.3114754098360656
tp5936
a(g186
F0.3103448275862069
tp5937
a(g318
F0.30935251798561153
tp5938
a(g3787
F0.3064516129032258
tp5939
a(g1048
F0.3023255813953488
tp5940
a(g39
F0.3014705882352941
tp5941
a(g3405
F0.3
tp5942
a(g149
F0.2857142857142857
tp5943
a(g161
F0.2857142857142857
tp5944
a(g2974
F0.2833333333333333
tp5945
a(g4329
F0.27906976744186046
tp5946
a(g324
F0.2786885245901639
tp5947
a(g180
F0.27586206896551724
tp5948
a(g929
F0.27586206896551724
tp5949
a(g3987
F0.2713178294573643
tp5950
a(g3280
F0.26666666666666666
tp5951
a(g418
F0.26666666666666666
tp5952
a(g335
F0.26666666666666666
tp5953
a(g219
F0.25806451612903225
tp5954
a(g316
F0.2537313432835821
tp5955
a(g331
F0.25153374233128833
tp5956
a(g78
F0.25
tp5957
a(g543
F0.25
tp5958
a(g117
F0.2459016393442623
tp5959
a(g638
F0.24427480916030533
tp5960
a(g381
F0.2441860465116279
tp5961
a(g2578
F0.2413793103448276
tp5962
a(g222
F0.2413793103448276
tp5963
a(g383
F0.2391304347826087
tp5964
a(g322
F0.23809523809523808
tp5965
a(g5829
F0.23387096774193547
tp5966
a(g3855
F0.23036649214659685
tp5967
a(g333
F0.21505376344086022
tp5968
a(g2894
F0.21323529411764705
tp5969
a(g465
F0.21
tp5970
a(g113
F0.20772946859903382
tp5971
a(g936
F0.20618556701030927
tp5972
as(g9
g119
tp5973
(lp5974
(g13
F0.29310344827586204
tp5975
a(g15
F0.26153846153846155
tp5976
as(g2
g44
tp5977
(lp5978
(g7
F0.3333333333333333
tp5979
a(g1
F0.3114754098360656
tp5980
a(g3
F0.273972602739726
tp5981
a(g1350
F0.21951219512195122
tp5982
a(g39
F0.20588235294117646
tp5983
as(g1719
g172
tp5984
(lp5985
(g1890
F0.26229508196721313
tp5986
as(g399
g21
tp5987
(lp5988
(g398
F0.6956521739130435
tp5989
as(g35
g29
g37
g30
g32
tp5990
(lp5991
(g31
F0.26785714285714285
tp5992
as(g675
g301
tp5993
(lp5994
(g298
F0.5757575757575758
tp5995
a(g677
F0.42857142857142855
tp5996
as(g3804
tp5997
(lp5998
(g1073
F0.265625
tp5999
as(g29
g37
g30
g31
tp6000
(lp6001
(g35
F0.2459016393442623
tp6002
a(g32
F0.2054794520547945
tp6003
as(g15
g226
g13
tp6004
(lp6005
(g9
F0.3888888888888889
tp6006
as(g4583
tp6007
(lp6008
(g4580
F1.0
tp6009
as(g112
g113
tp6010
(lp6011
(g114
F0.36
tp6012
a(g532
F0.3
tp6013
a(g117
F0.29508196721311475
tp6014
a(g180
F0.25862068965517243
tp6015
a(g465
F0.22
tp6016
as(g10
g447
g3472
tp6017
(lp6018
(g451
F0.2571428571428571
tp6019
as(g1
g2
g39
g256
g3
tp6020
(lp6021
(g7
F0.25
tp6022
as(g1730
tp6023
(lp6024
(g117
F0.26229508196721313
tp6025
a(S'inc:hypertensive disease'
p6026
F0.25862068965517243
tp6027
as(g126
g127
g128
g132
tp6028
(lp6029
(g134
F0.23076923076923078
tp6030
a(g129
F0.2077922077922078
tp6031
as(g1
g2
tp6032
(lp6033
(g7
F0.9333333333333333
tp6034
a(g3
F0.8356164383561644
tp6035
a(g44
F0.4418604651162791
tp6036
a(g39
F0.4117647058823529
tp6037
a(g46
F0.36363636363636365
tp6038
a(g136
F0.35714285714285715
tp6039
a(g31
F0.30357142857142855
tp6040
a(g48
F0.2926829268292683
tp6041
a(g52
F0.21649484536082475
tp6042
as(g2401
tp6043
(lp6044
(g1220
F0.2465753424657534
tp6045
as(g1382
g1379
tp6046
(lp6047
(g1054
F0.6956521739130435
tp6048
as(g2
g372
tp6049
(lp6050
(g1
F0.2459016393442623
tp6051
a(g3
F0.2328767123287671
tp6052
a(g39
F0.21323529411764705
tp6053
as(g465
g114
tp6054
(lp6055
(g166
F0.5172413793103449
tp6056
a(g117
F0.29508196721311475
tp6057
a(g214
F0.29310344827586204
tp6058
as(g2906
tp6059
(lp6060
(g2903
F1.0
tp6061
as(g2
g7
g39
g3
g303
tp6062
(lp6063
(g1
F0.29508196721311475
tp6064
as(g54
g13
tp6065
(lp6066
(g9
F0.2777777777777778
tp6067
as(g1438
g1434
tp6068
(lp6069
(g1493
F0.85
tp6070
a(g1435
F0.6521739130434783
tp6071
as(g3472
g1774
tp6072
(lp6073
(g1771
F0.5945945945945946
tp6074
as(g29
g136
tp6075
(lp6076
(g35
F0.2459016393442623
tp6077
a(g32
F0.2328767123287671
tp6078
as(g30
g10
tp6079
(lp6080
(g31
F0.5
tp6081
as(g2
g7
g39
g256
tp6082
(lp6083
(g1
F0.2459016393442623
tp6084
a(g3
F0.2054794520547945
tp6085
as(g2
g7
g39
g46
g3
tp6086
(lp6087
(g1
F0.26229508196721313
tp6088
as(g1
g2
g7
g39
g168
tp6089
(lp6090
(g3
F0.2191780821917808
tp6091
as(g39
tp6092
(lp6093
(g7
F0.9833333333333333
tp6094
a(g1
F0.9180327868852459
tp6095
a(g2
F0.8642857142857143
tp6096
a(g3
F0.821917808219178
tp6097
a(g44
F0.6744186046511628
tp6098
a(g46
F0.4772727272727273
tp6099
a(g136
F0.47619047619047616
tp6100
a(g1350
F0.43902439024390244
tp6101
a(g31
F0.42857142857142855
tp6102
a(g13
F0.39655172413793105
tp6103
a(g245
F0.359375
tp6104
a(g1760
F0.35714285714285715
tp6105
a(g1057
F0.3541666666666667
tp6106
a(g15
F0.35384615384615387
tp6107
a(g9
F0.35185185185185186
tp6108
a(g1104
F0.3516483516483517
tp6109
a(g418
F0.34444444444444444
tp6110
a(g276
F0.3333333333333333
tp6111
a(g316
F0.3283582089552239
tp6112
a(g78
F0.28846153846153844
tp6113
a(g3272
F0.27607361963190186
tp6114
a(g63
F0.2698412698412698
tp6115
a(g936
F0.26804123711340205
tp6116
a(g543
F0.26
tp6117
a(g168
F0.2589928057553957
tp6118
a(g186
F0.25862068965517243
tp6119
a(g27
F0.25806451612903225
tp6120
a(g367
F0.2571428571428571
tp6121
a(g322
F0.25396825396825395
tp6122
a(g1073
F0.25
tp6123
a(g660
F0.2465753424657534
tp6124
a(g103
F0.23255813953488372
tp6125
a(g303
F0.23
tp6126
a(g10
F0.2290909090909091
tp6127
a(g224
F0.225
tp6128
a(g222
F0.22413793103448276
tp6129
a(g3280
F0.2222222222222222
tp6130
a(g320
F0.2222222222222222
tp6131
a(g333
F0.21505376344086022
tp6132
a(g638
F0.20610687022900764
tp6133
a(g335
F0.2
tp6134
as(g134
g128
g985
tp6135
(lp6136
(g132
F0.4473684210526316
tp6137
a(g129
F0.23376623376623376
tp6138
as(g4830
tp6139
(lp6140
(g4827
F0.6
tp6141
a(g5280
F0.2328767123287671
tp6142
a(S'exc:adrenal cortex hormones'
p6143
F0.225
tp6144
a(g3320
F0.2158273381294964
tp6145
a(S'exc:immunosuppressive agents'
p6146
F0.21551724137931033
tp6147
as(g388
g226
tp6148
(lp6149
(g393
F0.5882352941176471
tp6150
a(g390
F0.3125
tp6151
as(g29
g31
g32
tp6152
(lp6153
(g35
F0.2786885245901639
tp6154
a(g37
F0.25
tp6155
a(g30
F0.2073170731707317
tp6156
as(g15
g10
g13
g407
tp6157
(lp6158
(g9
F0.2962962962962963
tp6159
as(g1
g2
g39
g192
tp6160
(lp6161
(g7
F0.31666666666666665
tp6162
a(g3
F0.273972602739726
tp6163
as(g15
g13
tp6164
(lp6165
(g9
F0.9259259259259259
tp6166
a(g407
F0.20430107526881722
tp6167
as(g675
g301
g298
tp6168
(lp6169
(g677
F0.42857142857142855
tp6170
as(g2591
tp6171
(lp6172
(g2404
F0.4838709677419355
tp6173
as(g9
g226
g10
tp6174
(lp6175
(g13
F0.3448275862068966
tp6176
a(g15
F0.3076923076923077
tp6177
as(g117
g114
tp6178
(lp6179
(g163
F0.8888888888888888
tp6180
a(g166
F0.5862068965517241
tp6181
a(g214
F0.3793103448275862
tp6182
a(g112
F0.21333333333333335
tp6183
as(g15
g1032
tp6184
(lp6185
(g9
F0.2962962962962963
tp6186
a(g13
F0.27586206896551724
tp6187
as(g1
g7
g103
tp6188
(lp6189
(g3
F0.2465753424657534
tp6190
as(g88
g85
tp6191
(lp6192
(g543
F0.23
tp6193
as(g377
g378
g698
tp6194
(lp6195
(g381
F0.22093023255813954
tp6196
as(g1
g39
g46
g3
tp6197
(lp6198
(g7
F0.26666666666666666
tp6199
as(g1
g2
g39
g103
g3
tp6200
(lp6201
(g7
F0.3
tp6202
as(g4474
S'exc:aspartate transaminase'
p6203
g23
tp6204
(lp6205
(g1760
F0.35714285714285715
tp6206
a(g7
F0.2833333333333333
tp6207
a(g1
F0.26229508196721313
tp6208
a(g3
F0.2328767123287671
tp6209
as(g465
g172
tp6210
(lp6211
(g519
F0.6
tp6212
a(g462
F0.5945945945945946
tp6213
a(g166
F0.5862068965517241
tp6214
a(g114
F0.46
tp6215
a(g180
F0.39655172413793105
tp6216
a(g117
F0.36065573770491804
tp6217
a(g112
F0.29333333333333333
tp6218
as(g134
g126
tp6219
(lp6220
(g132
F0.5526315789473685
tp6221
a(g129
F0.2987012987012987
tp6222
as(g71
g72
g9
g15
tp6223
(lp6224
(g13
F0.25862068965517243
tp6225
as(g126
g127
g129
tp6226
(lp6227
(g132
F0.42105263157894735
tp6228
a(g134
F0.26153846153846155
tp6229
as(g9
g13
g286
tp6230
(lp6231
(g15
F0.4
tp6232
as(g2
g39
g367
tp6233
(lp6234
(g7
F0.25
tp6235
a(g3
F0.2191780821917808
tp6236
as(g35
g30
g31
tp6237
(lp6238
(g37
F0.25
tp6239
a(g32
F0.2328767123287671
tp6240
as(g15
g13
g286
g407
tp6241
(lp6242
(g9
F0.2962962962962963
tp6243
as(g393
g388
tp6244
(lp6245
(g390
F0.375
tp6246
a(g389
F0.34
tp6247
as(g39
g367
g3
tp6248
(lp6249
(g7
F0.26666666666666666
tp6250
as(g226
g1628
tp6251
(lp6252
(g655
F0.23214285714285715
tp6253
as(g147
g581
tp6254
(lp6255
(g144
F0.5555555555555556
tp6256
as(g372
tp6257
(lp6258
(S'inc:pneumonia viral'
p6259
F1.0
tp6260
a(S'inc:coronavirus infections'
p6261
F0.6296296296296297
tp6262
a(g316
F0.4626865671641791
tp6263
a(g136
F0.42857142857142855
tp6264
a(g78
F0.41346153846153844
tp6265
a(S'inc:nucleic acids'
p6266
F0.40540540540540543
tp6267
a(g335
F0.38666666666666666
tp6268
a(g638
F0.35877862595419846
tp6269
a(g2578
F0.3563218390804598
tp6270
a(g3855
F0.34554973821989526
tp6271
a(g222
F0.3448275862068966
tp6272
a(g3804
F0.3404255319148936
tp6273
a(g333
F0.3225806451612903
tp6274
a(g224
F0.3125
tp6275
a(g460
F0.3088235294117647
tp6276
a(g1342
F0.3050847457627119
tp6277
a(g324
F0.29508196721311475
tp6278
a(g381
F0.29069767441860467
tp6279
a(g219
F0.2903225806451613
tp6280
a(g3987
F0.2868217054263566
tp6281
a(g331
F0.27607361963190186
tp6282
a(g113
F0.2753623188405797
tp6283
a(g926
F0.275
tp6284
a(g3
F0.273972602739726
tp6285
a(g929
F0.2672413793103448
tp6286
a(g318
F0.26618705035971224
tp6287
a(g383
F0.2608695652173913
tp6288
a(g936
F0.25773195876288657
tp6289
a(g640
F0.25287356321839083
tp6290
a(g320
F0.25
tp6291
a(g39
F0.25
tp6292
a(g2
F0.25
tp6293
a(g1
F0.2459016393442623
tp6294
a(g149
F0.23809523809523808
tp6295
a(g2894
F0.23529411764705882
tp6296
a(g3823
F0.234375
tp6297
a(g140
F0.233502538071066
tp6298
a(g3280
F0.23333333333333334
tp6299
a(g15
F0.23076923076923078
tp6300
a(g418
F0.2111111111111111
tp6301
a(g1048
F0.20930232558139536
tp6302
a(g1093
F0.2054794520547945
tp6303
a(g327
F0.20238095238095238
tp6304
a(g2928
F0.2013888888888889
tp6305
a(g24
F0.2
tp6306
as(g3
g372
tp6307
(lp6308
(g1
F0.2459016393442623
tp6309
as(g1
g2
g7
g39
g4
tp6310
(lp6311
(g3
F0.2054794520547945
tp6312
as(g884
g10
tp6313
(lp6314
(g451
F0.24285714285714285
tp6315
a(g276
F0.23809523809523808
tp6316
as(g73
tp6317
(lp6318
(S'inc:plain x-ray'
p6319
F1.0
tp6320
a(S'inc:chest ct'
p6321
F1.0
tp6322
a(S'inc:decreased translucency'
p6323
F0.7692307692307693
tp6324
a(g78
F0.6730769230769231
tp6325
a(g333
F0.5591397849462365
tp6326
a(g3784
F0.4166666666666667
tp6327
a(g316
F0.3880597014925373
tp6328
a(g381
F0.3488372093023256
tp6329
a(g2578
F0.3333333333333333
tp6330
a(g324
F0.32786885245901637
tp6331
a(g2974
F0.31666666666666665
tp6332
a(g172
F0.3140096618357488
tp6333
a(g3987
F0.3023255813953488
tp6334
a(g1693
F0.2894736842105263
tp6335
a(g149
F0.2857142857142857
tp6336
a(g322
F0.2857142857142857
tp6337
a(g222
F0.28448275862068967
tp6338
a(g3
F0.273972602739726
tp6339
a(g2894
F0.27205882352941174
tp6340
a(g929
F0.2672413793103448
tp6341
a(g638
F0.26717557251908397
tp6342
a(g460
F0.2647058823529412
tp6343
a(g224
F0.2625
tp6344
a(g186
F0.25862068965517243
tp6345
a(S'inc:oxygen'
p6346
F0.255
tp6347
a(g655
F0.25
tp6348
a(g39
F0.25
tp6349
a(g7
F0.25
tp6350
a(g15
F0.24615384615384617
tp6351
a(g1
F0.2459016393442623
tp6352
a(g331
F0.24539877300613497
tp6353
a(g2
F0.24285714285714285
tp6354
a(g936
F0.23711340206185566
tp6355
a(g320
F0.2361111111111111
tp6356
a(g327
F0.2261904761904762
tp6357
a(g2928
F0.2222222222222222
tp6358
a(g335
F0.21333333333333335
tp6359
a(g318
F0.20863309352517986
tp6360
a(g543
F0.2
tp6361
as(g398
g21
tp6362
(lp6363
(g399
F0.6666666666666666
tp6364
as(g71
g9
g10
g13
tp6365
(lp6366
(g15
F0.23076923076923078
tp6367
as(g1
g44
tp6368
(lp6369
(g7
F0.3
tp6370
a(g3
F0.2602739726027397
tp6371
as(g1223
g1220
tp6372
(lp6373
(g1219
F0.5833333333333334
tp6374
as(g276
tp6375
(lp6376
(g273
F0.43956043956043955
tp6377
a(g718
F0.2714285714285714
tp6378
a(g10
F0.2290909090909091
tp6379
a(g720
F0.2054794520547945
tp6380
as(g3746
g4373
tp6381
(lp6382
(g3748
F0.9411764705882353
tp6383
as(g208
g24
tp6384
(lp6385
(g729
F0.3125
tp6386
a(g212
F0.2876712328767123
tp6387
a(g27
F0.26881720430107525
tp6388
a(g1102
F0.24691358024691357
tp6389
as(g1
g2
g39
g168
g3
tp6390
(lp6391
(g7
F0.26666666666666666
tp6392
as(g2581
g1223
g1220
tp6393
(lp6394
(g1219
F0.4722222222222222
tp6395
as(g95
tp6396
(lp6397
(g90
F0.5294117647058824
tp6398
a(g1083
F0.4393939393939394
tp6399
a(g505
F0.4375
tp6400
a(g134
F0.26153846153846155
tp6401
as(g297
g671
g301
tp6402
(lp6403
(g298
F0.6363636363636364
tp6404
as(g465
g462
tp6405
(lp6406
(g2351
F0.3620689655172414
tp6407
a(g2354
F0.2459016393442623
tp6408
a(g980
F0.22666666666666666
tp6409
as(g1397
tp6410
(lp6411
(g1394
F0.2716049382716049
tp6412
as(g1
g7
g39
g303
tp6413
(lp6414
(g3
F0.2465753424657534
tp6415
as(g7
g3
g4
tp6416
(lp6417
(g1
F0.2459016393442623
tp6418
as(g9
g226
g13
tp6419
(lp6420
(g15
F0.3230769230769231
tp6421
as(g134
g129
g985
tp6422
(lp6423
(g132
F0.4473684210526316
tp6424
as(g128
g132
g985
tp6425
(lp6426
(g134
F0.26153846153846155
tp6427
a(g129
F0.23376623376623376
tp6428
as(g1160
tp6429
(lp6430
(g675
F0.6
tp6431
a(g1523
F0.5
tp6432
a(g298
F0.48484848484848486
tp6433
a(g301
F0.47058823529411764
tp6434
a(g677
F0.45714285714285713
tp6435
as(g2277
g63
tp6436
(lp6437
(g61
F1.0
tp6438
a(g314
F0.37209302325581395
tp6439
a(g428
F0.25
tp6440
as(g1339
tp6441
(lp6442
(g1990
F0.5483870967741935
tp6443
a(g1332
F0.36585365853658536
tp6444
a(g10
F0.23636363636363636
tp6445
a(g1993
F0.23076923076923078
tp6446
as(g4169
S'inc:heart'
p6447
tp6448
(lp6449
(g180
F0.25862068965517243
tp6450
as(g381
g172
tp6451
(lp6452
(g701
F0.21505376344086022
tp6453
as(g166
g117
g114
tp6454
(lp6455
(g163
F0.8888888888888888
tp6456
as(g180
g173
tp6457
(lp6458
(g353
F0.29508196721311475
tp6459
as(g314
tp6460
(lp6461
(g3285
F0.38095238095238093
tp6462
as(g35
g29
g31
g32
tp6463
(lp6464
(g37
F0.25
tp6465
a(g30
F0.2073170731707317
tp6466
as(g1185
tp6467
(lp6468
(g3791
F0.4473684210526316
tp6469
as(g1
g2
g39
g3
tp6470
(lp6471
(g7
F0.9166666666666666
tp6472
a(g44
F0.3953488372093023
tp6473
a(g46
F0.36363636363636365
tp6474
a(g48
F0.2682926829268293
tp6475
a(g31
F0.26785714285714285
tp6476
a(g52
F0.20618556701030927
tp6477
as.